
AVRASM ver. 2.1.30  D:\Git\C-AES-128\avr168pa\Debug\List\main.asm Sun Jan 28 22:22:46 2018

D:\Git\C-AES-128\avr168pa\Debug\List\main.asm(1090): warning: Register r4 already defined by the .DEF directive
D:\Git\C-AES-128\avr168pa\Debug\List\main.asm(1091): warning: Register r3 already defined by the .DEF directive
D:\Git\C-AES-128\avr168pa\Debug\List\main.asm(1092): warning: Register r6 already defined by the .DEF directive
                 
                 
                 ;CodeVisionAVR C Compiler V3.12 Advanced
                 ;(C) Copyright 1998-2014 Pavel Haiduc, HP InfoTech s.r.l.
                 ;http://www.hpinfotech.com
                 
                 ;Build configuration    : Debug
                 ;Chip type              : ATmega168A
                 ;Program type           : Application
                 ;Clock frequency        : 8.000000 MHz
                 ;Memory model           : Small
                 ;Optimize for           : Size
                 ;(s)printf features     : int, width
                 ;(s)scanf features      : int, width
                 ;External RAM size      : 0
                 ;Data Stack size        : 512 byte(s)
                 ;Heap size              : 0 byte(s)
                 ;Promote 'char' to 'int': Yes
                 ;'char' is unsigned     : Yes
                 ;8 bit enums            : Yes
                 ;Global 'const' stored in FLASH: Yes
                 ;Enhanced function parameter passing: Yes
                 ;Enhanced core instructions: On
                 ;Automatic register allocation for global variables: On
                 ;Smart register allocation: On
                 
                 	#define _MODEL_SMALL_
                 
                 	#pragma AVRPART ADMIN PART_NAME ATmega168A
                 	#pragma AVRPART MEMORY PROG_FLASH 16384
                 	#pragma AVRPART MEMORY EEPROM 512
                 	#pragma AVRPART MEMORY INT_SRAM SIZE 1024
                 	#pragma AVRPART MEMORY INT_SRAM START_ADDR 0x100
                 
                 	#define CALL_SUPPORTED 1
                 
                 	.LISTMAC
                 	.EQU EERE=0x0
                 	.EQU EEWE=0x1
                 	.EQU EEMWE=0x2
                 	.EQU UDRE=0x5
                 	.EQU RXC=0x7
                 	.EQU EECR=0x1F
                 	.EQU EEDR=0x20
                 	.EQU EEARL=0x21
                 	.EQU EEARH=0x22
                 	.EQU SPSR=0x2D
                 	.EQU SPDR=0x2E
                 	.EQU SMCR=0x33
                 	.EQU MCUSR=0x34
                 	.EQU MCUCR=0x35
                 	.EQU WDTCSR=0x60
                 	.EQU UCSR0A=0xC0
                 	.EQU UDR0=0xC6
                 	.EQU SPL=0x3D
                 	.EQU SPH=0x3E
                 	.EQU SREG=0x3F
                 	.EQU GPIOR0=0x1E
                 
                 	.DEF R0X0=R0
                 	.DEF R0X1=R1
                 	.DEF R0X2=R2
                 	.DEF R0X3=R3
                 	.DEF R0X4=R4
                 	.DEF R0X5=R5
                 	.DEF R0X6=R6
                 	.DEF R0X7=R7
                 	.DEF R0X8=R8
                 	.DEF R0X9=R9
                 	.DEF R0XA=R10
                 	.DEF R0XB=R11
                 	.DEF R0XC=R12
                 	.DEF R0XD=R13
                 	.DEF R0XE=R14
                 	.DEF R0XF=R15
                 	.DEF R0X10=R16
                 	.DEF R0X11=R17
                 	.DEF R0X12=R18
                 	.DEF R0X13=R19
                 	.DEF R0X14=R20
                 	.DEF R0X15=R21
                 	.DEF R0X16=R22
                 	.DEF R0X17=R23
                 	.DEF R0X18=R24
                 	.DEF R0X19=R25
                 	.DEF R0X1A=R26
                 	.DEF R0X1B=R27
                 	.DEF R0X1C=R28
                 	.DEF R0X1D=R29
                 	.DEF R0X1E=R30
                 	.DEF R0X1F=R31
                 
                 	.EQU __SRAM_START=0x0100
                 	.EQU __SRAM_END=0x04FF
                 	.EQU __DSTACK_SIZE=0x0200
                 	.EQU __HEAP_SIZE=0x0000
                 	.EQU __CLEAR_SRAM_SIZE=__SRAM_END-__SRAM_START+1
                 
                 	.MACRO __CPD1N
                 	CPI  R30,LOW(@0)
                 	LDI  R26,HIGH(@0)
                 	CPC  R31,R26
                 	LDI  R26,BYTE3(@0)
                 	CPC  R22,R26
                 	LDI  R26,BYTE4(@0)
                 	CPC  R23,R26
                 	.ENDM
                 
                 	.MACRO __CPD2N
                 	CPI  R26,LOW(@0)
                 	LDI  R30,HIGH(@0)
                 	CPC  R27,R30
                 	LDI  R30,BYTE3(@0)
                 	CPC  R24,R30
                 	LDI  R30,BYTE4(@0)
                 	CPC  R25,R30
                 	.ENDM
                 
                 	.MACRO __CPWRR
                 	CP   R@0,R@2
                 	CPC  R@1,R@3
                 	.ENDM
                 
                 	.MACRO __CPWRN
                 	CPI  R@0,LOW(@2)
                 	LDI  R30,HIGH(@2)
                 	CPC  R@1,R30
                 	.ENDM
                 
                 	.MACRO __ADDB1MN
                 	SUBI R30,LOW(-@0-(@1))
                 	.ENDM
                 
                 	.MACRO __ADDB2MN
                 	SUBI R26,LOW(-@0-(@1))
                 	.ENDM
                 
                 	.MACRO __ADDW1MN
                 	SUBI R30,LOW(-@0-(@1))
                 	SBCI R31,HIGH(-@0-(@1))
                 	.ENDM
                 
                 	.MACRO __ADDW2MN
                 	SUBI R26,LOW(-@0-(@1))
                 	SBCI R27,HIGH(-@0-(@1))
                 	.ENDM
                 
                 	.MACRO __ADDW1FN
                 	SUBI R30,LOW(-2*@0-(@1))
                 	SBCI R31,HIGH(-2*@0-(@1))
                 	.ENDM
                 
                 	.MACRO __ADDD1FN
                 	SUBI R30,LOW(-2*@0-(@1))
                 	SBCI R31,HIGH(-2*@0-(@1))
                 	SBCI R22,BYTE3(-2*@0-(@1))
                 	.ENDM
                 
                 	.MACRO __ADDD1N
                 	SUBI R30,LOW(-@0)
                 	SBCI R31,HIGH(-@0)
                 	SBCI R22,BYTE3(-@0)
                 	SBCI R23,BYTE4(-@0)
                 	.ENDM
                 
                 	.MACRO __ADDD2N
                 	SUBI R26,LOW(-@0)
                 	SBCI R27,HIGH(-@0)
                 	SBCI R24,BYTE3(-@0)
                 	SBCI R25,BYTE4(-@0)
                 	.ENDM
                 
                 	.MACRO __SUBD1N
                 	SUBI R30,LOW(@0)
                 	SBCI R31,HIGH(@0)
                 	SBCI R22,BYTE3(@0)
                 	SBCI R23,BYTE4(@0)
                 	.ENDM
                 
                 	.MACRO __SUBD2N
                 	SUBI R26,LOW(@0)
                 	SBCI R27,HIGH(@0)
                 	SBCI R24,BYTE3(@0)
                 	SBCI R25,BYTE4(@0)
                 	.ENDM
                 
                 	.MACRO __ANDBMNN
                 	LDS  R30,@0+(@1)
                 	ANDI R30,LOW(@2)
                 	STS  @0+(@1),R30
                 	.ENDM
                 
                 	.MACRO __ANDWMNN
                 	LDS  R30,@0+(@1)
                 	ANDI R30,LOW(@2)
                 	STS  @0+(@1),R30
                 	LDS  R30,@0+(@1)+1
                 	ANDI R30,HIGH(@2)
                 	STS  @0+(@1)+1,R30
                 	.ENDM
                 
                 	.MACRO __ANDD1N
                 	ANDI R30,LOW(@0)
                 	ANDI R31,HIGH(@0)
                 	ANDI R22,BYTE3(@0)
                 	ANDI R23,BYTE4(@0)
                 	.ENDM
                 
                 	.MACRO __ANDD2N
                 	ANDI R26,LOW(@0)
                 	ANDI R27,HIGH(@0)
                 	ANDI R24,BYTE3(@0)
                 	ANDI R25,BYTE4(@0)
                 	.ENDM
                 
                 	.MACRO __ORBMNN
                 	LDS  R30,@0+(@1)
                 	ORI  R30,LOW(@2)
                 	STS  @0+(@1),R30
                 	.ENDM
                 
                 	.MACRO __ORWMNN
                 	LDS  R30,@0+(@1)
                 	ORI  R30,LOW(@2)
                 	STS  @0+(@1),R30
                 	LDS  R30,@0+(@1)+1
                 	ORI  R30,HIGH(@2)
                 	STS  @0+(@1)+1,R30
                 	.ENDM
                 
                 	.MACRO __ORD1N
                 	ORI  R30,LOW(@0)
                 	ORI  R31,HIGH(@0)
                 	ORI  R22,BYTE3(@0)
                 	ORI  R23,BYTE4(@0)
                 	.ENDM
                 
                 	.MACRO __ORD2N
                 	ORI  R26,LOW(@0)
                 	ORI  R27,HIGH(@0)
                 	ORI  R24,BYTE3(@0)
                 	ORI  R25,BYTE4(@0)
                 	.ENDM
                 
                 	.MACRO __DELAY_USB
                 	LDI  R24,LOW(@0)
                 __DELAY_USB_LOOP:
                 	DEC  R24
                 	BRNE __DELAY_USB_LOOP
                 	.ENDM
                 
                 	.MACRO __DELAY_USW
                 	LDI  R24,LOW(@0)
                 	LDI  R25,HIGH(@0)
                 __DELAY_USW_LOOP:
                 	SBIW R24,1
                 	BRNE __DELAY_USW_LOOP
                 	.ENDM
                 
                 	.MACRO __GETD1S
                 	LDD  R30,Y+@0
                 	LDD  R31,Y+@0+1
                 	LDD  R22,Y+@0+2
                 	LDD  R23,Y+@0+3
                 	.ENDM
                 
                 	.MACRO __GETD2S
                 	LDD  R26,Y+@0
                 	LDD  R27,Y+@0+1
                 	LDD  R24,Y+@0+2
                 	LDD  R25,Y+@0+3
                 	.ENDM
                 
                 	.MACRO __PUTD1S
                 	STD  Y+@0,R30
                 	STD  Y+@0+1,R31
                 	STD  Y+@0+2,R22
                 	STD  Y+@0+3,R23
                 	.ENDM
                 
                 	.MACRO __PUTD2S
                 	STD  Y+@0,R26
                 	STD  Y+@0+1,R27
                 	STD  Y+@0+2,R24
                 	STD  Y+@0+3,R25
                 	.ENDM
                 
                 	.MACRO __PUTDZ2
                 	STD  Z+@0,R26
                 	STD  Z+@0+1,R27
                 	STD  Z+@0+2,R24
                 	STD  Z+@0+3,R25
                 	.ENDM
                 
                 	.MACRO __CLRD1S
                 	STD  Y+@0,R30
                 	STD  Y+@0+1,R30
                 	STD  Y+@0+2,R30
                 	STD  Y+@0+3,R30
                 	.ENDM
                 
                 	.MACRO __POINTB1MN
                 	LDI  R30,LOW(@0+(@1))
                 	.ENDM
                 
                 	.MACRO __POINTW1MN
                 	LDI  R30,LOW(@0+(@1))
                 	LDI  R31,HIGH(@0+(@1))
                 	.ENDM
                 
                 	.MACRO __POINTD1M
                 	LDI  R30,LOW(@0)
                 	LDI  R31,HIGH(@0)
                 	LDI  R22,BYTE3(@0)
                 	LDI  R23,BYTE4(@0)
                 	.ENDM
                 
                 	.MACRO __POINTW1FN
                 	LDI  R30,LOW(2*@0+(@1))
                 	LDI  R31,HIGH(2*@0+(@1))
                 	.ENDM
                 
                 	.MACRO __POINTD1FN
                 	LDI  R30,LOW(2*@0+(@1))
                 	LDI  R31,HIGH(2*@0+(@1))
                 	LDI  R22,BYTE3(2*@0+(@1))
                 	LDI  R23,BYTE4(2*@0+(@1))
                 	.ENDM
                 
                 	.MACRO __POINTB2MN
                 	LDI  R26,LOW(@0+(@1))
                 	.ENDM
                 
                 	.MACRO __POINTW2MN
                 	LDI  R26,LOW(@0+(@1))
                 	LDI  R27,HIGH(@0+(@1))
                 	.ENDM
                 
                 	.MACRO __POINTW2FN
                 	LDI  R26,LOW(2*@0+(@1))
                 	LDI  R27,HIGH(2*@0+(@1))
                 	.ENDM
                 
                 	.MACRO __POINTD2FN
                 	LDI  R26,LOW(2*@0+(@1))
                 	LDI  R27,HIGH(2*@0+(@1))
                 	LDI  R24,BYTE3(2*@0+(@1))
                 	LDI  R25,BYTE4(2*@0+(@1))
                 	.ENDM
                 
                 	.MACRO __POINTBRM
                 	LDI  R@0,LOW(@1)
                 	.ENDM
                 
                 	.MACRO __POINTWRM
                 	LDI  R@0,LOW(@2)
                 	LDI  R@1,HIGH(@2)
                 	.ENDM
                 
                 	.MACRO __POINTBRMN
                 	LDI  R@0,LOW(@1+(@2))
                 	.ENDM
                 
                 	.MACRO __POINTWRMN
                 	LDI  R@0,LOW(@2+(@3))
                 	LDI  R@1,HIGH(@2+(@3))
                 	.ENDM
                 
                 	.MACRO __POINTWRFN
                 	LDI  R@0,LOW(@2*2+(@3))
                 	LDI  R@1,HIGH(@2*2+(@3))
                 	.ENDM
                 
                 	.MACRO __GETD1N
                 	LDI  R30,LOW(@0)
                 	LDI  R31,HIGH(@0)
                 	LDI  R22,BYTE3(@0)
                 	LDI  R23,BYTE4(@0)
                 	.ENDM
                 
                 	.MACRO __GETD2N
                 	LDI  R26,LOW(@0)
                 	LDI  R27,HIGH(@0)
                 	LDI  R24,BYTE3(@0)
                 	LDI  R25,BYTE4(@0)
                 	.ENDM
                 
                 	.MACRO __GETB1MN
                 	LDS  R30,@0+(@1)
                 	.ENDM
                 
                 	.MACRO __GETB1HMN
                 	LDS  R31,@0+(@1)
                 	.ENDM
                 
                 	.MACRO __GETW1MN
                 	LDS  R30,@0+(@1)
                 	LDS  R31,@0+(@1)+1
                 	.ENDM
                 
                 	.MACRO __GETD1MN
                 	LDS  R30,@0+(@1)
                 	LDS  R31,@0+(@1)+1
                 	LDS  R22,@0+(@1)+2
                 	LDS  R23,@0+(@1)+3
                 	.ENDM
                 
                 	.MACRO __GETBRMN
                 	LDS  R@0,@1+(@2)
                 	.ENDM
                 
                 	.MACRO __GETWRMN
                 	LDS  R@0,@2+(@3)
                 	LDS  R@1,@2+(@3)+1
                 	.ENDM
                 
                 	.MACRO __GETWRZ
                 	LDD  R@0,Z+@2
                 	LDD  R@1,Z+@2+1
                 	.ENDM
                 
                 	.MACRO __GETD2Z
                 	LDD  R26,Z+@0
                 	LDD  R27,Z+@0+1
                 	LDD  R24,Z+@0+2
                 	LDD  R25,Z+@0+3
                 	.ENDM
                 
                 	.MACRO __GETB2MN
                 	LDS  R26,@0+(@1)
                 	.ENDM
                 
                 	.MACRO __GETW2MN
                 	LDS  R26,@0+(@1)
                 	LDS  R27,@0+(@1)+1
                 	.ENDM
                 
                 	.MACRO __GETD2MN
                 	LDS  R26,@0+(@1)
                 	LDS  R27,@0+(@1)+1
                 	LDS  R24,@0+(@1)+2
                 	LDS  R25,@0+(@1)+3
                 	.ENDM
                 
                 	.MACRO __PUTB1MN
                 	STS  @0+(@1),R30
                 	.ENDM
                 
                 	.MACRO __PUTW1MN
                 	STS  @0+(@1),R30
                 	STS  @0+(@1)+1,R31
                 	.ENDM
                 
                 	.MACRO __PUTD1MN
                 	STS  @0+(@1),R30
                 	STS  @0+(@1)+1,R31
                 	STS  @0+(@1)+2,R22
                 	STS  @0+(@1)+3,R23
                 	.ENDM
                 
                 	.MACRO __PUTB1EN
                 	LDI  R26,LOW(@0+(@1))
                 	LDI  R27,HIGH(@0+(@1))
                 	CALL __EEPROMWRB
                 	.ENDM
                 
                 	.MACRO __PUTW1EN
                 	LDI  R26,LOW(@0+(@1))
                 	LDI  R27,HIGH(@0+(@1))
                 	CALL __EEPROMWRW
                 	.ENDM
                 
                 	.MACRO __PUTD1EN
                 	LDI  R26,LOW(@0+(@1))
                 	LDI  R27,HIGH(@0+(@1))
                 	CALL __EEPROMWRD
                 	.ENDM
                 
                 	.MACRO __PUTBR0MN
                 	STS  @0+(@1),R0
                 	.ENDM
                 
                 	.MACRO __PUTBMRN
                 	STS  @0+(@1),R@2
                 	.ENDM
                 
                 	.MACRO __PUTWMRN
                 	STS  @0+(@1),R@2
                 	STS  @0+(@1)+1,R@3
                 	.ENDM
                 
                 	.MACRO __PUTBZR
                 	STD  Z+@1,R@0
                 	.ENDM
                 
                 	.MACRO __PUTWZR
                 	STD  Z+@2,R@0
                 	STD  Z+@2+1,R@1
                 	.ENDM
                 
                 	.MACRO __GETW1R
                 	MOV  R30,R@0
                 	MOV  R31,R@1
                 	.ENDM
                 
                 	.MACRO __GETW2R
                 	MOV  R26,R@0
                 	MOV  R27,R@1
                 	.ENDM
                 
                 	.MACRO __GETWRN
                 	LDI  R@0,LOW(@2)
                 	LDI  R@1,HIGH(@2)
                 	.ENDM
                 
                 	.MACRO __PUTW1R
                 	MOV  R@0,R30
                 	MOV  R@1,R31
                 	.ENDM
                 
                 	.MACRO __PUTW2R
                 	MOV  R@0,R26
                 	MOV  R@1,R27
                 	.ENDM
                 
                 	.MACRO __ADDWRN
                 	SUBI R@0,LOW(-@2)
                 	SBCI R@1,HIGH(-@2)
                 	.ENDM
                 
                 	.MACRO __ADDWRR
                 	ADD  R@0,R@2
                 	ADC  R@1,R@3
                 	.ENDM
                 
                 	.MACRO __SUBWRN
                 	SUBI R@0,LOW(@2)
                 	SBCI R@1,HIGH(@2)
                 	.ENDM
                 
                 	.MACRO __SUBWRR
                 	SUB  R@0,R@2
                 	SBC  R@1,R@3
                 	.ENDM
                 
                 	.MACRO __ANDWRN
                 	ANDI R@0,LOW(@2)
                 	ANDI R@1,HIGH(@2)
                 	.ENDM
                 
                 	.MACRO __ANDWRR
                 	AND  R@0,R@2
                 	AND  R@1,R@3
                 	.ENDM
                 
                 	.MACRO __ORWRN
                 	ORI  R@0,LOW(@2)
                 	ORI  R@1,HIGH(@2)
                 	.ENDM
                 
                 	.MACRO __ORWRR
                 	OR   R@0,R@2
                 	OR   R@1,R@3
                 	.ENDM
                 
                 	.MACRO __EORWRR
                 	EOR  R@0,R@2
                 	EOR  R@1,R@3
                 	.ENDM
                 
                 	.MACRO __GETWRS
                 	LDD  R@0,Y+@2
                 	LDD  R@1,Y+@2+1
                 	.ENDM
                 
                 	.MACRO __PUTBSR
                 	STD  Y+@1,R@0
                 	.ENDM
                 
                 	.MACRO __PUTWSR
                 	STD  Y+@2,R@0
                 	STD  Y+@2+1,R@1
                 	.ENDM
                 
                 	.MACRO __MOVEWRR
                 	MOV  R@0,R@2
                 	MOV  R@1,R@3
                 	.ENDM
                 
                 	.MACRO __INWR
                 	IN   R@0,@2
                 	IN   R@1,@2+1
                 	.ENDM
                 
                 	.MACRO __OUTWR
                 	OUT  @2+1,R@1
                 	OUT  @2,R@0
                 	.ENDM
                 
                 	.MACRO __CALL1MN
                 	LDS  R30,@0+(@1)
                 	LDS  R31,@0+(@1)+1
                 	ICALL
                 	.ENDM
                 
                 	.MACRO __CALL1FN
                 	LDI  R30,LOW(2*@0+(@1))
                 	LDI  R31,HIGH(2*@0+(@1))
                 	CALL __GETW1PF
                 	ICALL
                 	.ENDM
                 
                 	.MACRO __CALL2EN
                 	PUSH R26
                 	PUSH R27
                 	LDI  R26,LOW(@0+(@1))
                 	LDI  R27,HIGH(@0+(@1))
                 	CALL __EEPROMRDW
                 	POP  R27
                 	POP  R26
                 	ICALL
                 	.ENDM
                 
                 	.MACRO __CALL2EX
                 	SUBI R26,LOW(-@0)
                 	SBCI R27,HIGH(-@0)
                 	CALL __EEPROMRDD
                 	ICALL
                 	.ENDM
                 
                 	.MACRO __GETW1STACK
                 	IN   R30,SPL
                 	IN   R31,SPH
                 	ADIW R30,@0+1
                 	LD   R0,Z+
                 	LD   R31,Z
                 	MOV  R30,R0
                 	.ENDM
                 
                 	.MACRO __GETD1STACK
                 	IN   R30,SPL
                 	IN   R31,SPH
                 	ADIW R30,@0+1
                 	LD   R0,Z+
                 	LD   R1,Z+
                 	LD   R22,Z
                 	MOVW R30,R0
                 	.ENDM
                 
                 	.MACRO __NBST
                 	BST  R@0,@1
                 	IN   R30,SREG
                 	LDI  R31,0x40
                 	EOR  R30,R31
                 	OUT  SREG,R30
                 	.ENDM
                 
                 
                 	.MACRO __PUTB1SN
                 	LDD  R26,Y+@0
                 	LDD  R27,Y+@0+1
                 	SUBI R26,LOW(-@1)
                 	SBCI R27,HIGH(-@1)
                 	ST   X,R30
                 	.ENDM
                 
                 	.MACRO __PUTW1SN
                 	LDD  R26,Y+@0
                 	LDD  R27,Y+@0+1
                 	SUBI R26,LOW(-@1)
                 	SBCI R27,HIGH(-@1)
                 	ST   X+,R30
                 	ST   X,R31
                 	.ENDM
                 
                 	.MACRO __PUTD1SN
                 	LDD  R26,Y+@0
                 	LDD  R27,Y+@0+1
                 	SUBI R26,LOW(-@1)
                 	SBCI R27,HIGH(-@1)
                 	CALL __PUTDP1
                 	.ENDM
                 
                 	.MACRO __PUTB1SNS
                 	LDD  R26,Y+@0
                 	LDD  R27,Y+@0+1
                 	ADIW R26,@1
                 	ST   X,R30
                 	.ENDM
                 
                 	.MACRO __PUTW1SNS
                 	LDD  R26,Y+@0
                 	LDD  R27,Y+@0+1
                 	ADIW R26,@1
                 	ST   X+,R30
                 	ST   X,R31
                 	.ENDM
                 
                 	.MACRO __PUTD1SNS
                 	LDD  R26,Y+@0
                 	LDD  R27,Y+@0+1
                 	ADIW R26,@1
                 	CALL __PUTDP1
                 	.ENDM
                 
                 	.MACRO __PUTB1PMN
                 	LDS  R26,@0
                 	LDS  R27,@0+1
                 	SUBI R26,LOW(-@1)
                 	SBCI R27,HIGH(-@1)
                 	ST   X,R30
                 	.ENDM
                 
                 	.MACRO __PUTW1PMN
                 	LDS  R26,@0
                 	LDS  R27,@0+1
                 	SUBI R26,LOW(-@1)
                 	SBCI R27,HIGH(-@1)
                 	ST   X+,R30
                 	ST   X,R31
                 	.ENDM
                 
                 	.MACRO __PUTD1PMN
                 	LDS  R26,@0
                 	LDS  R27,@0+1
                 	SUBI R26,LOW(-@1)
                 	SBCI R27,HIGH(-@1)
                 	CALL __PUTDP1
                 	.ENDM
                 
                 	.MACRO __PUTB1PMNS
                 	LDS  R26,@0
                 	LDS  R27,@0+1
                 	ADIW R26,@1
                 	ST   X,R30
                 	.ENDM
                 
                 	.MACRO __PUTW1PMNS
                 	LDS  R26,@0
                 	LDS  R27,@0+1
                 	ADIW R26,@1
                 	ST   X+,R30
                 	ST   X,R31
                 	.ENDM
                 
                 	.MACRO __PUTD1PMNS
                 	LDS  R26,@0
                 	LDS  R27,@0+1
                 	ADIW R26,@1
                 	CALL __PUTDP1
                 	.ENDM
                 
                 	.MACRO __PUTB1RN
                 	MOVW R26,R@0
                 	SUBI R26,LOW(-@1)
                 	SBCI R27,HIGH(-@1)
                 	ST   X,R30
                 	.ENDM
                 
                 	.MACRO __PUTW1RN
                 	MOVW R26,R@0
                 	SUBI R26,LOW(-@1)
                 	SBCI R27,HIGH(-@1)
                 	ST   X+,R30
                 	ST   X,R31
                 	.ENDM
                 
                 	.MACRO __PUTD1RN
                 	MOVW R26,R@0
                 	SUBI R26,LOW(-@1)
                 	SBCI R27,HIGH(-@1)
                 	CALL __PUTDP1
                 	.ENDM
                 
                 	.MACRO __PUTB1RNS
                 	MOVW R26,R@0
                 	ADIW R26,@1
                 	ST   X,R30
                 	.ENDM
                 
                 	.MACRO __PUTW1RNS
                 	MOVW R26,R@0
                 	ADIW R26,@1
                 	ST   X+,R30
                 	ST   X,R31
                 	.ENDM
                 
                 	.MACRO __PUTD1RNS
                 	MOVW R26,R@0
                 	ADIW R26,@1
                 	CALL __PUTDP1
                 	.ENDM
                 
                 	.MACRO __PUTB1RON
                 	MOV  R26,R@0
                 	MOV  R27,R@1
                 	SUBI R26,LOW(-@2)
                 	SBCI R27,HIGH(-@2)
                 	ST   X,R30
                 	.ENDM
                 
                 	.MACRO __PUTW1RON
                 	MOV  R26,R@0
                 	MOV  R27,R@1
                 	SUBI R26,LOW(-@2)
                 	SBCI R27,HIGH(-@2)
                 	ST   X+,R30
                 	ST   X,R31
                 	.ENDM
                 
                 	.MACRO __PUTD1RON
                 	MOV  R26,R@0
                 	MOV  R27,R@1
                 	SUBI R26,LOW(-@2)
                 	SBCI R27,HIGH(-@2)
                 	CALL __PUTDP1
                 	.ENDM
                 
                 	.MACRO __PUTB1RONS
                 	MOV  R26,R@0
                 	MOV  R27,R@1
                 	ADIW R26,@2
                 	ST   X,R30
                 	.ENDM
                 
                 	.MACRO __PUTW1RONS
                 	MOV  R26,R@0
                 	MOV  R27,R@1
                 	ADIW R26,@2
                 	ST   X+,R30
                 	ST   X,R31
                 	.ENDM
                 
                 	.MACRO __PUTD1RONS
                 	MOV  R26,R@0
                 	MOV  R27,R@1
                 	ADIW R26,@2
                 	CALL __PUTDP1
                 	.ENDM
                 
                 
                 	.MACRO __GETB1SX
                 	MOVW R30,R28
                 	SUBI R30,LOW(-@0)
                 	SBCI R31,HIGH(-@0)
                 	LD   R30,Z
                 	.ENDM
                 
                 	.MACRO __GETB1HSX
                 	MOVW R30,R28
                 	SUBI R30,LOW(-@0)
                 	SBCI R31,HIGH(-@0)
                 	LD   R31,Z
                 	.ENDM
                 
                 	.MACRO __GETW1SX
                 	MOVW R30,R28
                 	SUBI R30,LOW(-@0)
                 	SBCI R31,HIGH(-@0)
                 	LD   R0,Z+
                 	LD   R31,Z
                 	MOV  R30,R0
                 	.ENDM
                 
                 	.MACRO __GETD1SX
                 	MOVW R30,R28
                 	SUBI R30,LOW(-@0)
                 	SBCI R31,HIGH(-@0)
                 	LD   R0,Z+
                 	LD   R1,Z+
                 	LD   R22,Z+
                 	LD   R23,Z
                 	MOVW R30,R0
                 	.ENDM
                 
                 	.MACRO __GETB2SX
                 	MOVW R26,R28
                 	SUBI R26,LOW(-@0)
                 	SBCI R27,HIGH(-@0)
                 	LD   R26,X
                 	.ENDM
                 
                 	.MACRO __GETW2SX
                 	MOVW R26,R28
                 	SUBI R26,LOW(-@0)
                 	SBCI R27,HIGH(-@0)
                 	LD   R0,X+
                 	LD   R27,X
                 	MOV  R26,R0
                 	.ENDM
                 
                 	.MACRO __GETD2SX
                 	MOVW R26,R28
                 	SUBI R26,LOW(-@0)
                 	SBCI R27,HIGH(-@0)
                 	LD   R0,X+
                 	LD   R1,X+
                 	LD   R24,X+
                 	LD   R25,X
                 	MOVW R26,R0
                 	.ENDM
                 
                 	.MACRO __GETBRSX
                 	MOVW R30,R28
                 	SUBI R30,LOW(-@1)
                 	SBCI R31,HIGH(-@1)
                 	LD   R@0,Z
                 	.ENDM
                 
                 	.MACRO __GETWRSX
                 	MOVW R30,R28
                 	SUBI R30,LOW(-@2)
                 	SBCI R31,HIGH(-@2)
                 	LD   R@0,Z+
                 	LD   R@1,Z
                 	.ENDM
                 
                 	.MACRO __GETBRSX2
                 	MOVW R26,R28
                 	SUBI R26,LOW(-@1)
                 	SBCI R27,HIGH(-@1)
                 	LD   R@0,X
                 	.ENDM
                 
                 	.MACRO __GETWRSX2
                 	MOVW R26,R28
                 	SUBI R26,LOW(-@2)
                 	SBCI R27,HIGH(-@2)
                 	LD   R@0,X+
                 	LD   R@1,X
                 	.ENDM
                 
                 	.MACRO __LSLW8SX
                 	MOVW R30,R28
                 	SUBI R30,LOW(-@0)
                 	SBCI R31,HIGH(-@0)
                 	LD   R31,Z
                 	CLR  R30
                 	.ENDM
                 
                 	.MACRO __PUTB1SX
                 	MOVW R26,R28
                 	SUBI R26,LOW(-@0)
                 	SBCI R27,HIGH(-@0)
                 	ST   X,R30
                 	.ENDM
                 
                 	.MACRO __PUTW1SX
                 	MOVW R26,R28
                 	SUBI R26,LOW(-@0)
                 	SBCI R27,HIGH(-@0)
                 	ST   X+,R30
                 	ST   X,R31
                 	.ENDM
                 
                 	.MACRO __PUTD1SX
                 	MOVW R26,R28
                 	SUBI R26,LOW(-@0)
                 	SBCI R27,HIGH(-@0)
                 	ST   X+,R30
                 	ST   X+,R31
                 	ST   X+,R22
                 	ST   X,R23
                 	.ENDM
                 
                 	.MACRO __CLRW1SX
                 	MOVW R26,R28
                 	SUBI R26,LOW(-@0)
                 	SBCI R27,HIGH(-@0)
                 	ST   X+,R30
                 	ST   X,R30
                 	.ENDM
                 
                 	.MACRO __CLRD1SX
                 	MOVW R26,R28
                 	SUBI R26,LOW(-@0)
                 	SBCI R27,HIGH(-@0)
                 	ST   X+,R30
                 	ST   X+,R30
                 	ST   X+,R30
                 	ST   X,R30
                 	.ENDM
                 
                 	.MACRO __PUTB2SX
                 	MOVW R30,R28
                 	SUBI R30,LOW(-@0)
                 	SBCI R31,HIGH(-@0)
                 	ST   Z,R26
                 	.ENDM
                 
                 	.MACRO __PUTW2SX
                 	MOVW R30,R28
                 	SUBI R30,LOW(-@0)
                 	SBCI R31,HIGH(-@0)
                 	ST   Z+,R26
                 	ST   Z,R27
                 	.ENDM
                 
                 	.MACRO __PUTD2SX
                 	MOVW R30,R28
                 	SUBI R30,LOW(-@0)
                 	SBCI R31,HIGH(-@0)
                 	ST   Z+,R26
                 	ST   Z+,R27
                 	ST   Z+,R24
                 	ST   Z,R25
                 	.ENDM
                 
                 	.MACRO __PUTBSRX
                 	MOVW R30,R28
                 	SUBI R30,LOW(-@1)
                 	SBCI R31,HIGH(-@1)
                 	ST   Z,R@0
                 	.ENDM
                 
                 	.MACRO __PUTWSRX
                 	MOVW R30,R28
                 	SUBI R30,LOW(-@2)
                 	SBCI R31,HIGH(-@2)
                 	ST   Z+,R@0
                 	ST   Z,R@1
                 	.ENDM
                 
                 	.MACRO __PUTB1SNX
                 	MOVW R26,R28
                 	SUBI R26,LOW(-@0)
                 	SBCI R27,HIGH(-@0)
                 	LD   R0,X+
                 	LD   R27,X
                 	MOV  R26,R0
                 	SUBI R26,LOW(-@1)
                 	SBCI R27,HIGH(-@1)
                 	ST   X,R30
                 	.ENDM
                 
                 	.MACRO __PUTW1SNX
                 	MOVW R26,R28
                 	SUBI R26,LOW(-@0)
                 	SBCI R27,HIGH(-@0)
                 	LD   R0,X+
                 	LD   R27,X
                 	MOV  R26,R0
                 	SUBI R26,LOW(-@1)
                 	SBCI R27,HIGH(-@1)
                 	ST   X+,R30
                 	ST   X,R31
                 	.ENDM
                 
                 	.MACRO __PUTD1SNX
                 	MOVW R26,R28
                 	SUBI R26,LOW(-@0)
                 	SBCI R27,HIGH(-@0)
                 	LD   R0,X+
                 	LD   R27,X
                 	MOV  R26,R0
                 	SUBI R26,LOW(-@1)
                 	SBCI R27,HIGH(-@1)
                 	ST   X+,R30
                 	ST   X+,R31
                 	ST   X+,R22
                 	ST   X,R23
                 	.ENDM
                 
                 	.MACRO __MULBRR
                 	MULS R@0,R@1
                 	MOVW R30,R0
                 	.ENDM
                 
                 	.MACRO __MULBRRU
                 	MUL  R@0,R@1
                 	MOVW R30,R0
                 	.ENDM
                 
                 	.MACRO __MULBRR0
                 	MULS R@0,R@1
                 	.ENDM
                 
                 	.MACRO __MULBRRU0
                 	MUL  R@0,R@1
                 	.ENDM
                 
                 	.MACRO __MULBNWRU
                 	LDI  R26,@2
                 	MUL  R26,R@0
                 	MOVW R30,R0
                 	MUL  R26,R@1
                 	ADD  R31,R0
                 	.ENDM
                 
                 ;NAME DEFINITIONS FOR GLOBAL VARIABLES ALLOCATED TO REGISTERS
                 	.DEF _rx_wr_index0=R4
                 	.DEF _rx_rd_index0=R3
                 	.DEF _rx_counter0=R6
                 
                 ;GPIOR0 INITIALIZATION VALUE
                 	.EQU __GPIOR0_INIT=0x00
                 
                 	.CSEG
                 	.ORG 0x00
                 
                 ;START OF CODE MARKER
                 __START_OF_CODE:
                 
                 ;INTERRUPT VECTORS
000000 940c 0100 	JMP  __RESET
000002 940c 0000 	JMP  0x00
000004 940c 0000 	JMP  0x00
000006 940c 0000 	JMP  0x00
000008 940c 0000 	JMP  0x00
00000a 940c 0000 	JMP  0x00
00000c 940c 0000 	JMP  0x00
00000e 940c 0000 	JMP  0x00
000010 940c 0000 	JMP  0x00
000012 940c 0000 	JMP  0x00
000014 940c 0000 	JMP  0x00
000016 940c 0000 	JMP  0x00
000018 940c 0000 	JMP  0x00
00001a 940c 0000 	JMP  0x00
00001c 940c 0000 	JMP  0x00
00001e 940c 0000 	JMP  0x00
000020 940c 0000 	JMP  0x00
000022 940c 0000 	JMP  0x00
000024 940c 012f 	JMP  _usart_rx_isr
000026 940c 0000 	JMP  0x00
000028 940c 0000 	JMP  0x00
00002a 940c 0000 	JMP  0x00
00002c 940c 0000 	JMP  0x00
00002e 940c 0000 	JMP  0x00
000030 940c 0000 	JMP  0x00
000032 940c 0000 	JMP  0x00
                 
                 _sbox:
000034 7c63
000035 7b77
000036 6bf2
000037 c56f      	.DB  0x63,0x7C,0x77,0x7B,0xF2,0x6B,0x6F,0xC5
000038 0130
000039 2b67
00003a d7fe
00003b 76ab      	.DB  0x30,0x1,0x67,0x2B,0xFE,0xD7,0xAB,0x76
00003c 82ca
00003d 7dc9
00003e 59fa
00003f f047      	.DB  0xCA,0x82,0xC9,0x7D,0xFA,0x59,0x47,0xF0
000040 d4ad
000041 afa2
000042 a49c
000043 c072      	.DB  0xAD,0xD4,0xA2,0xAF,0x9C,0xA4,0x72,0xC0
000044 fdb7
000045 2693
000046 3f36
000047 ccf7      	.DB  0xB7,0xFD,0x93,0x26,0x36,0x3F,0xF7,0xCC
000048 a534
000049 f1e5
00004a d871
00004b 1531      	.DB  0x34,0xA5,0xE5,0xF1,0x71,0xD8,0x31,0x15
00004c c704
00004d c323
00004e 9618
00004f 9a05      	.DB  0x4,0xC7,0x23,0xC3,0x18,0x96,0x5,0x9A
000050 1207
000051 e280
000052 27eb
000053 75b2      	.DB  0x7,0x12,0x80,0xE2,0xEB,0x27,0xB2,0x75
000054 8309
000055 1a2c
000056 6e1b
000057 a05a      	.DB  0x9,0x83,0x2C,0x1A,0x1B,0x6E,0x5A,0xA0
000058 3b52
000059 b3d6
00005a e329
00005b 842f      	.DB  0x52,0x3B,0xD6,0xB3,0x29,0xE3,0x2F,0x84
00005c d153
00005d ed00
00005e fc20
00005f 5bb1      	.DB  0x53,0xD1,0x0,0xED,0x20,0xFC,0xB1,0x5B
000060 cb6a
000061 39be
000062 4c4a
000063 cf58      	.DB  0x6A,0xCB,0xBE,0x39,0x4A,0x4C,0x58,0xCF
000064 efd0
000065 fbaa
000066 4d43
000067 8533      	.DB  0xD0,0xEF,0xAA,0xFB,0x43,0x4D,0x33,0x85
000068 f945
000069 7f02
00006a 3c50
00006b a89f      	.DB  0x45,0xF9,0x2,0x7F,0x50,0x3C,0x9F,0xA8
00006c a351
00006d 8f40
00006e 9d92
00006f f538      	.DB  0x51,0xA3,0x40,0x8F,0x92,0x9D,0x38,0xF5
000070 b6bc
000071 21da
000072 ff10
000073 d2f3      	.DB  0xBC,0xB6,0xDA,0x21,0x10,0xFF,0xF3,0xD2
000074 0ccd
000075 ec13
000076 975f
000077 1744      	.DB  0xCD,0xC,0x13,0xEC,0x5F,0x97,0x44,0x17
000078 a7c4
000079 3d7e
00007a 5d64
00007b 7319      	.DB  0xC4,0xA7,0x7E,0x3D,0x64,0x5D,0x19,0x73
00007c 8160
00007d dc4f
00007e 2a22
00007f 8890      	.DB  0x60,0x81,0x4F,0xDC,0x22,0x2A,0x90,0x88
000080 ee46
000081 14b8
000082 5ede
000083 db0b      	.DB  0x46,0xEE,0xB8,0x14,0xDE,0x5E,0xB,0xDB
000084 32e0
000085 0a3a
000086 0649
000087 5c24      	.DB  0xE0,0x32,0x3A,0xA,0x49,0x6,0x24,0x5C
000088 d3c2
000089 62ac
00008a 9591
00008b 79e4      	.DB  0xC2,0xD3,0xAC,0x62,0x91,0x95,0xE4,0x79
00008c c8e7
00008d 6d37
00008e d58d
00008f a94e      	.DB  0xE7,0xC8,0x37,0x6D,0x8D,0xD5,0x4E,0xA9
000090 566c
000091 eaf4
000092 7a65
000093 08ae      	.DB  0x6C,0x56,0xF4,0xEA,0x65,0x7A,0xAE,0x8
000094 78ba
000095 2e25
000096 a61c
000097 c6b4      	.DB  0xBA,0x78,0x25,0x2E,0x1C,0xA6,0xB4,0xC6
000098 dde8
000099 1f74
00009a bd4b
00009b 8a8b      	.DB  0xE8,0xDD,0x74,0x1F,0x4B,0xBD,0x8B,0x8A
00009c 3e70
00009d 66b5
00009e 0348
00009f 0ef6      	.DB  0x70,0x3E,0xB5,0x66,0x48,0x3,0xF6,0xE
0000a0 3561
0000a1 b957
0000a2 c186
0000a3 9e1d      	.DB  0x61,0x35,0x57,0xB9,0x86,0xC1,0x1D,0x9E
0000a4 f8e1
0000a5 1198
0000a6 d969
0000a7 948e      	.DB  0xE1,0xF8,0x98,0x11,0x69,0xD9,0x8E,0x94
0000a8 1e9b
0000a9 e987
0000aa 55ce
0000ab df28      	.DB  0x9B,0x1E,0x87,0xE9,0xCE,0x55,0x28,0xDF
0000ac a18c
0000ad 0d89
0000ae e6bf
0000af 6842      	.DB  0x8C,0xA1,0x89,0xD,0xBF,0xE6,0x42,0x68
0000b0 9941
0000b1 0f2d
0000b2 54b0
0000b3 16bb      	.DB  0x41,0x99,0x2D,0xF,0xB0,0x54,0xBB,0x16
                 _tbl10_G100:
0000b4 2710
0000b5 03e8
0000b6 0064
0000b7 000a      	.DB  0x10,0x27,0xE8,0x3,0x64,0x0,0xA,0x0
0000b8 0001      	.DB  0x1,0x0
                 _tbl16_G100:
0000b9 1000
0000ba 0100
0000bb 0010
0000bc 0001      	.DB  0x0,0x10,0x0,0x1,0x10,0x0,0x1,0x0
                 
                 ;GLOBAL REGISTER VARIABLES INITIALIZATION
                 __REG_VARS:
0000bd 0000
0000be 0000      	.DB  0x0,0x0,0x0,0x0
                 
                 _0x0:
0000bf 0a0d
0000c0 6c50
0000c1 6961
0000c2 746e      	.DB  0xD,0xA,0x50,0x6C,0x61,0x69,0x6E,0x74
0000c3 5420
0000c4 7865
0000c5 3a74
0000c6 0020      	.DB  0x20,0x54,0x65,0x78,0x74,0x3A,0x20,0x0
0000c7 5825
0000c8 0020
0000c9 0a0d
0000ca 654b      	.DB  0x25,0x58,0x20,0x0,0xD,0xA,0x4B,0x65
0000cb 3a79
0000cc 0020
0000cd 0a0d
0000ce 5709      	.DB  0x79,0x3A,0x20,0x0,0xD,0xA,0x9,0x57
0000cf 7461
0000d0 6974
0000d1 676e
0000d2 4520      	.DB  0x61,0x74,0x74,0x69,0x6E,0x67,0x20,0x45
0000d3 636e
0000d4 7972
0000d5 7470
0000d6 2120      	.DB  0x6E,0x63,0x72,0x79,0x70,0x74,0x20,0x21
0000d7 2121
0000d8 0d00
0000d9 430a
0000da 7069      	.DB  0x21,0x21,0x0,0xD,0xA,0x43,0x69,0x70
0000db 6568
0000dc 2072
0000dd 6554
0000de 7478      	.DB  0x68,0x65,0x72,0x20,0x54,0x65,0x78,0x74
0000df 203a
0000e0 0d00
0000e1 090a
0000e2 6e45      	.DB  0x3A,0x20,0x0,0xD,0xA,0x9,0x45,0x6E
0000e3 2064
0000e4 6e45
0000e5 7263
0000e6 7079      	.DB  0x64,0x20,0x45,0x6E,0x63,0x72,0x79,0x70
0000e7 2074
0000e8 4541
0000e9 2d53
0000ea 3231      	.DB  0x74,0x20,0x41,0x45,0x53,0x2D,0x31,0x32
0000eb 2038
0000ec 2121
0000ed 0d21
0000ee 000a      	.DB  0x38,0x20,0x21,0x21,0x21,0xD,0xA,0x0
0000ef 0a0d
0000f0 554e
0000f1 4c4c
0000f2 0a0d      	.DB  0xD,0xA,0x4E,0x55,0x4C,0x4C,0xD,0xA
D:\Git\C-AES-128\avr168pa\Debug\List\main.asm(1188): warning: .cseg .db misalignment - padding zero byte
0000f3 0000      	.DB  0x0
                 _0x20003:
0000f4 0201
0000f5 0804
0000f6 2010
0000f7 8040      	.DB  0x1,0x2,0x4,0x8,0x10,0x20,0x40,0x80
0000f8 361b      	.DB  0x1B,0x36
                 
                 __GLOBAL_INI_TBL:
0000f9 0004      	.DW  0x04
0000fa 0003      	.DW  0x03
0000fb 017a      	.DW  __REG_VARS*2
                 
0000fc 000a      	.DW  0x0A
0000fd 032b      	.DW  _rcon
0000fe 01e8      	.DW  _0x20003*2
                 
                 _0xFFFFFFFF:
0000ff 0000      	.DW  0
                 
                 #define __GLOBAL_INI_TBL_PRESENT 1
                 
                 __RESET:
000100 94f8      	CLI
000101 27ee      	CLR  R30
000102 bbef      	OUT  EECR,R30
                 
                 ;INTERRUPT VECTORS ARE PLACED
                 ;AT THE START OF FLASH
000103 e0f1      	LDI  R31,1
000104 bff5      	OUT  MCUCR,R31
000105 bfe5      	OUT  MCUCR,R30
                 
                 ;CLEAR R2-R14
000106 e08d      	LDI  R24,(14-2)+1
000107 e0a2      	LDI  R26,2
000108 27bb      	CLR  R27
                 __CLEAR_REG:
000109 93ed      	ST   X+,R30
00010a 958a      	DEC  R24
00010b f7e9      	BRNE __CLEAR_REG
                 
                 ;CLEAR SRAM
00010c e080      	LDI  R24,LOW(__CLEAR_SRAM_SIZE)
00010d e094      	LDI  R25,HIGH(__CLEAR_SRAM_SIZE)
00010e e0a0      	LDI  R26,LOW(__SRAM_START)
00010f e0b1      	LDI  R27,HIGH(__SRAM_START)
                 __CLEAR_SRAM:
000110 93ed      	ST   X+,R30
000111 9701      	SBIW R24,1
000112 f7e9      	BRNE __CLEAR_SRAM
                 
                 ;GLOBAL VARIABLES INITIALIZATION
000113 efe2      	LDI  R30,LOW(__GLOBAL_INI_TBL*2)
000114 e0f1      	LDI  R31,HIGH(__GLOBAL_INI_TBL*2)
                 __GLOBAL_INI_NEXT:
000115 9185      	LPM  R24,Z+
000116 9195      	LPM  R25,Z+
000117 9700      	SBIW R24,0
000118 f061      	BREQ __GLOBAL_INI_END
000119 91a5      	LPM  R26,Z+
00011a 91b5      	LPM  R27,Z+
00011b 9005      	LPM  R0,Z+
00011c 9015      	LPM  R1,Z+
00011d 01bf      	MOVW R22,R30
00011e 01f0      	MOVW R30,R0
                 __GLOBAL_INI_LOOP:
00011f 9005      	LPM  R0,Z+
000120 920d      	ST   X+,R0
000121 9701      	SBIW R24,1
000122 f7e1      	BRNE __GLOBAL_INI_LOOP
000123 01fb      	MOVW R30,R22
000124 cff0      	RJMP __GLOBAL_INI_NEXT
                 __GLOBAL_INI_END:
                 
                 ;GPIOR0 INITIALIZATION
000125 e0e0      	LDI  R30,__GPIOR0_INIT
000126 bbee      	OUT  GPIOR0,R30
                 
                 ;HARDWARE STACK POINTER INITIALIZATION
000127 efef      	LDI  R30,LOW(__SRAM_END-__HEAP_SIZE)
000128 bfed      	OUT  SPL,R30
000129 e0e4      	LDI  R30,HIGH(__SRAM_END-__HEAP_SIZE)
00012a bfee      	OUT  SPH,R30
                 
                 ;DATA STACK POINTER INITIALIZATION
00012b e0c0      	LDI  R28,LOW(__SRAM_START+__DSTACK_SIZE)
00012c e0d3      	LDI  R29,HIGH(__SRAM_START+__DSTACK_SIZE)
                 
00012d 940c 0166 	JMP  _main
                 
                 	.ESEG
                 	.ORG 0
                 
                 	.DSEG
                 	.ORG 0x300
                 
                 	.CSEG
                 ;/*******************************************************
                 ;This program was created by the
                 ;CodeWizardAVR V3.12 Advanced
                 ;Automatic Program Generator
                 ;© Copyright 1998-2014 Pavel Haiduc, HP InfoTech s.r.l.
                 ;http://www.hpinfotech.com
                 ;
                 ;Project : AES-128
                 ;Version : 1.0
                 ;Date    : 1/26/2018
                 ;Author  : Khang
                 ;Company : NoTime
                 ;Comments:
                 ;
                 ;
                 ;Chip type               : ATmega168A
                 ;Program type            : Application
                 ;AVR Core Clock frequency: 8.000000 MHz
                 ;Memory model            : Small
                 ;External RAM size       : 0
                 ;Data Stack size         : 256
                 ;*******************************************************/
                 ;
                 ;#include <mega168a.h>
                 	#ifndef __SLEEP_DEFINED__
                 	#define __SLEEP_DEFINED__
                 	.EQU __se_bit=0x01
                 	.EQU __sm_mask=0x0E
                 	.EQU __sm_adc_noise_red=0x02
                 	.EQU __sm_powerdown=0x04
                 	.EQU __sm_powersave=0x06
                 	.EQU __sm_standby=0x0C
                 	.EQU __sm_ext_standby=0x0E
                 	.SET power_ctrl_reg=smcr
                 	#endif
                 ;
                 ;// Declare your global variables here
                 ;
                 ;#define DATA_REGISTER_EMPTY (1<<UDRE0)
                 ;#define RX_COMPLETE (1<<RXC0)
                 ;#define FRAMING_ERROR (1<<FE0)
                 ;#define PARITY_ERROR (1<<UPE0)
                 ;#define DATA_OVERRUN (1<<DOR0)
                 ;
                 ;// USART Receiver buffer
                 ;#define RX_BUFFER_SIZE0 43
                 ;char rx_buffer0[RX_BUFFER_SIZE0];
                 ;
                 ;#if RX_BUFFER_SIZE0 <= 256
                 ;unsigned char rx_wr_index0=0,rx_rd_index0=0;
                 ;#else
                 ;unsigned int rx_wr_index0=0,rx_rd_index0=0;
                 ;#endif
                 ;
                 ;#if RX_BUFFER_SIZE0 < 256
                 ;unsigned char rx_counter0=0;
                 ;#else
                 ;unsigned int rx_counter0=0;
                 ;#endif
                 ;// This flag is set on USART Receiver buffer overflow
                 ;bit rx_buffer_overflow0;
                 ;
                 ;// USART Receiver interrupt service routine
                 ;interrupt [USART_RXC] void usart_rx_isr(void)
                 ; 0000 0036 {
                 
                 	.CSEG
                 _usart_rx_isr:
                 ; .FSTART _usart_rx_isr
00012f 93ea      	ST   -Y,R30
000130 93fa      	ST   -Y,R31
000131 b7ef      	IN   R30,SREG
000132 93ea      	ST   -Y,R30
                 ; 0000 0037 char status,data;
                 ; 0000 0038 status=UCSR0A;
000133 931a      	ST   -Y,R17
000134 930a      	ST   -Y,R16
                 ;	status -> R17
                 ;	data -> R16
000135 9110 00c0 	LDS  R17,192
                 ; 0000 0039 data=UDR0;
000137 9100 00c6 	LDS  R16,198
                 ; 0000 003A if ((status & (FRAMING_ERROR | PARITY_ERROR | DATA_OVERRUN))==0)
000139 2fe1      	MOV  R30,R17
00013a 71ec      	ANDI R30,LOW(0x1C)
00013b f481      	BRNE _0x3
                 ; 0000 003B    {
                 ; 0000 003C    rx_buffer0[rx_wr_index0++]=data;
00013c 2de4      	MOV  R30,R4
00013d 9443      	INC  R4
00013e e0f0      	LDI  R31,0
00013f 50e0      	SUBI R30,LOW(-_rx_buffer0)
000140 4ffd      	SBCI R31,HIGH(-_rx_buffer0)
000141 8300      	ST   Z,R16
                 ; 0000 003D #if RX_BUFFER_SIZE0 == 256
                 ; 0000 003E    // special case for receiver buffer size=256
                 ; 0000 003F    if (++rx_counter0 == 0) rx_buffer_overflow0=1;
                 ; 0000 0040 #else
                 ; 0000 0041    if (rx_wr_index0 == RX_BUFFER_SIZE0) rx_wr_index0=0;
000142 e2eb      	LDI  R30,LOW(43)
000143 15e4      	CP   R30,R4
000144 f409      	BRNE _0x4
000145 2444      	CLR  R4
                 ; 0000 0042    if (++rx_counter0 == RX_BUFFER_SIZE0)
                 _0x4:
000146 9463      	INC  R6
000147 e2eb      	LDI  R30,LOW(43)
000148 15e6      	CP   R30,R6
000149 f411      	BRNE _0x5
                 ; 0000 0043       {
                 ; 0000 0044       rx_counter0=0;
00014a 2466      	CLR  R6
                 ; 0000 0045       rx_buffer_overflow0=1;
00014b 9af0      	SBI  0x1E,0
                 ; 0000 0046       }
                 ; 0000 0047 #endif
                 ; 0000 0048    }
                 _0x5:
                 ; 0000 0049 }
                 _0x3:
00014c 9109      	LD   R16,Y+
00014d 9119      	LD   R17,Y+
00014e 91e9      	LD   R30,Y+
00014f bfef      	OUT  SREG,R30
000150 91f9      	LD   R31,Y+
000151 91e9      	LD   R30,Y+
000152 9518      	RETI
                 ; .FEND
                 ;
                 ;#ifndef _DEBUG_TERMINAL_IO_
                 ;// Get a character from the USART Receiver buffer
                 ;#define _ALTERNATE_GETCHAR_
                 ;#pragma used+
                 ;char getchar(void)
                 ; 0000 0050 {
                 _getchar:
                 ; .FSTART _getchar
                 ; 0000 0051 char data;
                 ; 0000 0052 while (rx_counter0==0);
000153 931a      	ST   -Y,R17
                 ;	data -> R17
                 _0x8:
000154 2066      	TST  R6
000155 f3f1      	BREQ _0x8
                 ; 0000 0053 data=rx_buffer0[rx_rd_index0++];
000156 2de3      	MOV  R30,R3
000157 9433      	INC  R3
000158 e0f0      	LDI  R31,0
000159 50e0      	SUBI R30,LOW(-_rx_buffer0)
00015a 4ffd      	SBCI R31,HIGH(-_rx_buffer0)
00015b 8110      	LD   R17,Z
                 ; 0000 0054 #if RX_BUFFER_SIZE0 != 256
                 ; 0000 0055 if (rx_rd_index0 == RX_BUFFER_SIZE0) rx_rd_index0=0;
00015c e2eb      	LDI  R30,LOW(43)
00015d 15e3      	CP   R30,R3
00015e f409      	BRNE _0xB
00015f 2433      	CLR  R3
                 ; 0000 0056 #endif
                 ; 0000 0057 #asm("cli")
                 _0xB:
000160 94f8      	cli
                 ; 0000 0058 --rx_counter0;
000161 946a      	DEC  R6
                 ; 0000 0059 #asm("sei")
000162 9478      	sei
                 ; 0000 005A return data;
000163 2fe1      	MOV  R30,R17
000164 9119      	LD   R17,Y+
000165 9508      	RET
                 ; 0000 005B }
                 ; .FEND
                 ;#pragma used-
                 ;#endif
                 ;
                 ;// Standard Input/Output functions
                 ;#include <stdio.h>
                 ;#include <delay.h>
                 ;#include "include/aes.h"
                 ;
                 ;void main(void)
                 ; 0000 0065 {
                 _main:
                 ; .FSTART _main
                 ; 0000 0066 // Declare your local variables here
                 ; 0000 0067 unsigned char i,ck,hd[44];
                 ; 0000 0068 unsigned char j;
                 ; 0000 0069 unsigned char text[16],key[16],cipher[16];
                 ; 0000 006A // Crystal Oscillator division factor: 1
                 ; 0000 006B #pragma optsize-
                 ; 0000 006C CLKPR=(1<<CLKPCE);
000166 97ef      	SBIW R28,63
000167 976d      	SBIW R28,29
                 ;	i -> R17
                 ;	ck -> R16
                 ;	hd -> Y+48
                 ;	j -> R19
                 ;	text -> Y+32
                 ;	key -> Y+16
                 ;	cipher -> Y+0
000168 e8e0      	LDI  R30,LOW(128)
000169 93e0 0061 	STS  97,R30
                 ; 0000 006D CLKPR=(0<<CLKPCE) | (0<<CLKPS3) | (0<<CLKPS2) | (0<<CLKPS1) | (0<<CLKPS0);
00016b e0e0      	LDI  R30,LOW(0)
00016c 93e0 0061 	STS  97,R30
                 ; 0000 006E #ifdef _OPTIMIZE_SIZE_
                 ; 0000 006F #pragma optsize+
                 ; 0000 0070 #endif
                 ; 0000 0071 
                 ; 0000 0072 // Input/Output Ports initialization
                 ; 0000 0073 // Port B initialization
                 ; 0000 0074 // Function: Bit7=In Bit6=In Bit5=In Bit4=In Bit3=In Bit2=In Bit1=In Bit0=In
                 ; 0000 0075 DDRB=(0<<DDB7) | (0<<DDB6) | (0<<DDB5) | (0<<DDB4) | (0<<DDB3) | (0<<DDB2) | (0<<DDB1) | (0<<DDB0);
00016e b9e4      	OUT  0x4,R30
                 ; 0000 0076 // State: Bit7=T Bit6=T Bit5=T Bit4=T Bit3=T Bit2=T Bit1=T Bit0=T
                 ; 0000 0077 PORTB=(0<<PORTB7) | (0<<PORTB6) | (0<<PORTB5) | (0<<PORTB4) | (0<<PORTB3) | (0<<PORTB2) | (0<<PORTB1) | (0<<PORTB0);
00016f b9e5      	OUT  0x5,R30
                 ; 0000 0078 
                 ; 0000 0079 // Port C initialization
                 ; 0000 007A // Function: Bit6=In Bit5=In Bit4=In Bit3=In Bit2=In Bit1=In Bit0=In
                 ; 0000 007B DDRC=(0<<DDC6) | (0<<DDC5) | (0<<DDC4) | (0<<DDC3) | (0<<DDC2) | (0<<DDC1) | (0<<DDC0);
000170 b9e7      	OUT  0x7,R30
                 ; 0000 007C // State: Bit6=T Bit5=T Bit4=T Bit3=T Bit2=T Bit1=T Bit0=T
                 ; 0000 007D PORTC=(0<<PORTC6) | (0<<PORTC5) | (0<<PORTC4) | (0<<PORTC3) | (0<<PORTC2) | (0<<PORTC1) | (0<<PORTC0);
000171 b9e8      	OUT  0x8,R30
                 ; 0000 007E 
                 ; 0000 007F // Port D initialization
                 ; 0000 0080 // Function: Bit7=In Bit6=In Bit5=In Bit4=In Bit3=In Bit2=In Bit1=In Bit0=In
                 ; 0000 0081 DDRD=(0<<DDD7) | (0<<DDD6) | (0<<DDD5) | (0<<DDD4) | (0<<DDD3) | (0<<DDD2) | (0<<DDD1) | (0<<DDD0);
000172 b9ea      	OUT  0xA,R30
                 ; 0000 0082 // State: Bit7=T Bit6=T Bit5=T Bit4=T Bit3=T Bit2=T Bit1=T Bit0=T
                 ; 0000 0083 PORTD=(0<<PORTD7) | (0<<PORTD6) | (0<<PORTD5) | (0<<PORTD4) | (0<<PORTD3) | (0<<PORTD2) | (0<<PORTD1) | (0<<PORTD0);
000173 b9eb      	OUT  0xB,R30
                 ; 0000 0084 
                 ; 0000 0085 // USART initialization
                 ; 0000 0086 // Communication Parameters: 8 Data, 1 Stop, No Parity
                 ; 0000 0087 // USART Receiver: On
                 ; 0000 0088 // USART Transmitter: On
                 ; 0000 0089 // USART0 Mode: Asynchronous
                 ; 0000 008A // USART Baud Rate: 9600
                 ; 0000 008B UCSR0A=(0<<RXC0) | (0<<TXC0) | (0<<UDRE0) | (0<<FE0) | (0<<DOR0) | (0<<UPE0) | (0<<U2X0) | (0<<MPCM0);
000174 93e0 00c0 	STS  192,R30
                 ; 0000 008C UCSR0B=(1<<RXCIE0) | (0<<TXCIE0) | (0<<UDRIE0) | (1<<RXEN0) | (1<<TXEN0) | (0<<UCSZ02) | (0<<RXB80) | (0<<TXB80);
000176 e9e8      	LDI  R30,LOW(152)
000177 93e0 00c1 	STS  193,R30
                 ; 0000 008D UCSR0C=(0<<UMSEL01) | (0<<UMSEL00) | (0<<UPM01) | (0<<UPM00) | (0<<USBS0) | (1<<UCSZ01) | (1<<UCSZ00) | (0<<UCPOL0);
000179 e0e6      	LDI  R30,LOW(6)
00017a 93e0 00c2 	STS  194,R30
                 ; 0000 008E UBRR0H=0x00;
00017c e0e0      	LDI  R30,LOW(0)
00017d 93e0 00c5 	STS  197,R30
                 ; 0000 008F UBRR0L=0x33;
00017f e3e3      	LDI  R30,LOW(51)
000180 93e0 00c4 	STS  196,R30
                 ; 0000 0090 
                 ; 0000 0091 // Global enable interrupts
                 ; 0000 0092 #asm("sei")
000182 9478      	sei
                 ; 0000 0093 for(i=0;i<16;i++)
000183 e010      	LDI  R17,LOW(0)
                 _0xD:
000184 3110      	CPI  R17,16
000185 f460      	BRSH _0xE
                 ; 0000 0094 {
                 ; 0000 0095 text[i]=0x00;
000186 2fe1      	MOV  R30,R17
000187 940e 06a2 	CALL SUBOPT_0x0
                 ; 0000 0096 key[i]=0x00;
000189 940e 06ac 	CALL SUBOPT_0x1
                 ; 0000 0097 cipher[i]=0x00;
00018b 01de      	MOVW R26,R28
00018c 0fae      	ADD  R26,R30
00018d 1fbf      	ADC  R27,R31
00018e e0e0      	LDI  R30,LOW(0)
00018f 93ec      	ST   X,R30
                 ; 0000 0098 }
000190 5f1f      	SUBI R17,-1
000191 cff2      	RJMP _0xD
                 _0xE:
                 ; 0000 0099 i=0;ck=0;
000192 e010      	LDI  R17,LOW(0)
000193 e000      	LDI  R16,LOW(0)
                 ; 0000 009A while (1)
                 _0xF:
                 ; 0000 009B     {
                 ; 0000 009C         while(rx_counter0 == 0);
                 _0x12:
000194 2066      	TST  R6
000195 f3f1      	BREQ _0x12
                 ; 0000 009D         delay_ms(1000);
000196 eea8      	LDI  R26,LOW(1000)
000197 e0b3      	LDI  R27,HIGH(1000)
000198 940e 079d 	CALL _delay_ms
                 ; 0000 009E         if(rx_counter0>9)
00019a e0e9      	LDI  R30,LOW(9)
00019b 15e6      	CP   R30,R6
00019c f4f0      	BRSH _0x15
                 ; 0000 009F         {
                 ; 0000 00A0         for(i=0;i<44;i++)
00019d e010      	LDI  R17,LOW(0)
                 _0x17:
00019e 321c      	CPI  R17,44
00019f f430      	BRSH _0x18
                 ; 0000 00A1             hd[i]='0';
0001a0 940e 06b5 	CALL SUBOPT_0x2
0001a2 e3e0      	LDI  R30,LOW(48)
0001a3 93ec      	ST   X,R30
0001a4 5f1f      	SUBI R17,-1
0001a5 cff8      	RJMP _0x17
                 _0x18:
                 ; 0000 00A2 i=0;
0001a6 e010      	LDI  R17,LOW(0)
                 ; 0000 00A3         while(rx_counter0>=0)
                 _0x19:
0001a7 e0e0      	LDI  R30,LOW(0)
0001a8 166e      	CP   R6,R30
0001a9 f080      	BRLO _0x1B
                 ; 0000 00A4         {
                 ; 0000 00A5             if(rx_counter0==0) break;
0001aa 2066      	TST  R6
0001ab f071      	BREQ _0x1B
                 ; 0000 00A6             hd[i++]=getchar();
0001ac 2fe1      	MOV  R30,R17
0001ad 5f1f      	SUBI R17,-1
0001ae e0f0      	LDI  R31,0
0001af 01de      	MOVW R26,R28
0001b0 96d0      	ADIW R26,48
0001b1 0fea      	ADD  R30,R26
0001b2 1ffb      	ADC  R31,R27
0001b3 93ff      	PUSH R31
0001b4 93ef      	PUSH R30
0001b5 df9d      	RCALL _getchar
0001b6 91af      	POP  R26
0001b7 91bf      	POP  R27
0001b8 93ec      	ST   X,R30
                 ; 0000 00A7         }
0001b9 cfed      	RJMP _0x19
                 _0x1B:
                 ; 0000 00A8         ck=1;
0001ba e001      	LDI  R16,LOW(1)
                 ; 0000 00A9         }
                 ; 0000 00AA 
                 ; 0000 00AB 
                 ; 0000 00AC         if((rx_counter0 == 0) && (ck == 1))
                 _0x15:
0001bb 2066      	TST  R6
0001bc f411      	BRNE _0x1E
0001bd 3001      	CPI  R16,1
0001be f009      	BREQ _0x1F
                 _0x1E:
0001bf c0e1      	RJMP _0x1D
                 _0x1F:
                 ; 0000 00AD         {
                 ; 0000 00AE             if(hd[0]=='8'&&hd[1]=='0'&&hd[4]=='0'&&hd[5]=='0'&&hd[6]=='0'&&hd[7]=='0'&&hd[8]=='1'&&hd[9]=='0')
0001c0 a9a8      	LDD  R26,Y+48
0001c1 33a8      	CPI  R26,LOW(0x38)
0001c2 f4a9      	BRNE _0x21
0001c3 a9a9      	LDD  R26,Y+49
0001c4 33a0      	CPI  R26,LOW(0x30)
0001c5 f491      	BRNE _0x21
0001c6 a9ac      	LDD  R26,Y+52
0001c7 33a0      	CPI  R26,LOW(0x30)
0001c8 f479      	BRNE _0x21
0001c9 a9ad      	LDD  R26,Y+53
0001ca 33a0      	CPI  R26,LOW(0x30)
0001cb f461      	BRNE _0x21
0001cc a9ae      	LDD  R26,Y+54
0001cd 33a0      	CPI  R26,LOW(0x30)
0001ce f449      	BRNE _0x21
0001cf a9af      	LDD  R26,Y+55
0001d0 33a0      	CPI  R26,LOW(0x30)
0001d1 f431      	BRNE _0x21
0001d2 ada8      	LDD  R26,Y+56
0001d3 33a1      	CPI  R26,LOW(0x31)
0001d4 f419      	BRNE _0x21
0001d5 ada9      	LDD  R26,Y+57
0001d6 33a0      	CPI  R26,LOW(0x30)
0001d7 f009      	BREQ _0x22
                 _0x21:
0001d8 c0c6      	RJMP _0x20
                 _0x22:
                 ; 0000 00AF             {
                 ; 0000 00B0                 if(hd[2]=='0')
0001d9 a9aa      	LDD  R26,Y+50
0001da 33a0      	CPI  R26,LOW(0x30)
0001db f009      	BREQ PC+2
0001dc c0c2      	RJMP _0x23
                 ; 0000 00B1                 {
                 ; 0000 00B2                     switch(hd[3])
0001dd a9eb      	LDD  R30,Y+51
0001de e0f0      	LDI  R31,0
                 ; 0000 00B3                     {
                 ; 0000 00B4                         case '2':
0001df 33e2      	CPI  R30,LOW(0x32)
0001e0 e0a0      	LDI  R26,HIGH(0x32)
0001e1 07fa      	CPC  R31,R26
0001e2 f009      	BREQ PC+2
0001e3 c042      	RJMP _0x27
                 ; 0000 00B5                         printf("\r\nPlaint Text: ");
                +
0001e4 e7ee     +LDI R30 , LOW ( 2 * _0x0 + ( 0 ) )
0001e5 e0f1     +LDI R31 , HIGH ( 2 * _0x0 + ( 0 ) )
                 	__POINTW1FN _0x0,0
0001e6 940e 06bc 	CALL SUBOPT_0x3
                 ; 0000 00B6                         j=0;
                 ; 0000 00B7                         for(i=10;i<42;i++)
                 _0x29:
0001e8 321a      	CPI  R17,42
0001e9 f560      	BRSH _0x2A
                 ; 0000 00B8                         {
                 ; 0000 00B9                             if((i+1)%2==0)
0001ea 940e 06c5 	CALL SUBOPT_0x4
0001ec f539      	BRNE _0x2B
                 ; 0000 00BA                             {
                 ; 0000 00BB                                 text[j]=0x00;
0001ed 2fe3      	MOV  R30,R19
0001ee 940e 06a2 	CALL SUBOPT_0x0
                 ; 0000 00BC                                 if(hd[i-1]<='9') text[j]=(hd[i-1]-0x30)*0x10;
0001f0 940e 06cf 	CALL SUBOPT_0x5
0001f2 91ac      	LD   R26,X
0001f3 33aa      	CPI  R26,LOW(0x3A)
0001f4 f428      	BRSH _0x2C
0001f5 940e 06d5 	CALL SUBOPT_0x6
0001f7 91ec      	LD   R30,X
0001f8 53e0      	SUBI R30,LOW(48)
0001f9 c004      	RJMP _0x45
                 ; 0000 00BD                                 else text[j]=(hd[i-1]-0x57)*0x10;
                 _0x2C:
0001fa 940e 06d5 	CALL SUBOPT_0x6
0001fc 91ec      	LD   R30,X
0001fd 55e7      	SUBI R30,LOW(87)
                 _0x45:
0001fe e1a0      	LDI  R26,LOW(16)
0001ff 02ea      	MULS R30,R26
000200 01f0      	MOVW R30,R0
000201 01db      	MOVW R26,R22
000202 93ec      	ST   X,R30
                 ; 0000 00BE                                 if(hd[i]<='9') text[j++]+=(hd[i]-0x30);
000203 940e 06b5 	CALL SUBOPT_0x2
000205 91ac      	LD   R26,X
000206 33aa      	CPI  R26,LOW(0x3A)
000207 f428      	BRSH _0x2E
000208 940e 06df 	CALL SUBOPT_0x7
00020a 91ec      	LD   R30,X
00020b 53e0      	SUBI R30,LOW(48)
00020c c004      	RJMP _0x46
                 ; 0000 00BF                                 else text[j++]+=(hd[i]-0x57);
                 _0x2E:
00020d 940e 06df 	CALL SUBOPT_0x7
00020f 91ec      	LD   R30,X
000210 55e7      	SUBI R30,LOW(87)
                 _0x46:
000211 0de0      	ADD  R30,R0
000212 01db      	MOVW R26,R22
000213 93ec      	ST   X,R30
                 ; 0000 00C0                             }
                 ; 0000 00C1                         }
                 _0x2B:
000214 5f1f      	SUBI R17,-1
000215 cfd2      	RJMP _0x29
                 _0x2A:
                 ; 0000 00C2                         delay_ms(100);
000216 e6a4      	LDI  R26,LOW(100)
000217 e0b0      	LDI  R27,0
000218 940e 079d 	CALL _delay_ms
                 ; 0000 00C3                         for(i=0;i<16;i++)
00021a e010      	LDI  R17,LOW(0)
                 _0x31:
00021b 3110      	CPI  R17,16
00021c f440      	BRSH _0x32
                 ; 0000 00C4                         {
                 ; 0000 00C5                         printf("%X ",text[i]);
00021d 940e 06e9 	CALL SUBOPT_0x8
00021f 01de      	MOVW R26,R28
000220 9692      	ADIW R26,34
000221 940e 06f0 	CALL SUBOPT_0x9
                 ; 0000 00C6                         }
000223 5f1f      	SUBI R17,-1
000224 cff6      	RJMP _0x31
                 _0x32:
                 ; 0000 00C7                         break;
000225 c079      	RJMP _0x26
                 ; 0000 00C8                         case '3':
                 _0x27:
000226 33e3      	CPI  R30,LOW(0x33)
000227 e0a0      	LDI  R26,HIGH(0x33)
000228 07fa      	CPC  R31,R26
000229 f009      	BREQ PC+2
00022a c043      	RJMP _0x33
                 ; 0000 00C9                         printf("\r\nKey: ");
                +
00022b e9e2     +LDI R30 , LOW ( 2 * _0x0 + ( 20 ) )
00022c e0f1     +LDI R31 , HIGH ( 2 * _0x0 + ( 20 ) )
                 	__POINTW1FN _0x0,20
00022d 940e 06bc 	CALL SUBOPT_0x3
                 ; 0000 00CA                         j=0;
                 ; 0000 00CB                         for(i=10;i<42;i++)
                 _0x35:
00022f 321a      	CPI  R17,42
000230 f568      	BRSH _0x36
                 ; 0000 00CC                         {
                 ; 0000 00CD                             if((i+1)%2==0)
000231 940e 06c5 	CALL SUBOPT_0x4
000233 f541      	BRNE _0x37
                 ; 0000 00CE                             {
                 ; 0000 00CF                                 key[j]=0x00;
000234 2fe3      	MOV  R30,R19
000235 e0f0      	LDI  R31,0
000236 940e 06ac 	CALL SUBOPT_0x1
                 ; 0000 00D0                                 if(hd[i-1]<='9') key[j]=(hd[i-1]-0x30)*0x10;
000238 940e 06cf 	CALL SUBOPT_0x5
00023a 91ac      	LD   R26,X
00023b 33aa      	CPI  R26,LOW(0x3A)
00023c f428      	BRSH _0x38
00023d 940e 06fd 	CALL SUBOPT_0xA
00023f 91ec      	LD   R30,X
000240 53e0      	SUBI R30,LOW(48)
000241 c004      	RJMP _0x47
                 ; 0000 00D1                                 else key[j]=(hd[i-1]-0x57)*0x10;
                 _0x38:
000242 940e 06fd 	CALL SUBOPT_0xA
000244 91ec      	LD   R30,X
000245 55e7      	SUBI R30,LOW(87)
                 _0x47:
000246 e1a0      	LDI  R26,LOW(16)
000247 02ea      	MULS R30,R26
000248 01f0      	MOVW R30,R0
000249 01db      	MOVW R26,R22
00024a 93ec      	ST   X,R30
                 ; 0000 00D2                                 if(hd[i]<='9') key[j++]+=(hd[i]-0x30);
00024b 940e 06b5 	CALL SUBOPT_0x2
00024d 91ac      	LD   R26,X
00024e 33aa      	CPI  R26,LOW(0x3A)
00024f f428      	BRSH _0x3A
000250 940e 0707 	CALL SUBOPT_0xB
000252 91ec      	LD   R30,X
000253 53e0      	SUBI R30,LOW(48)
000254 c004      	RJMP _0x48
                 ; 0000 00D3                                 else key[j++]+=(hd[i]-0x57);
                 _0x3A:
000255 940e 0707 	CALL SUBOPT_0xB
000257 91ec      	LD   R30,X
000258 55e7      	SUBI R30,LOW(87)
                 _0x48:
000259 0de0      	ADD  R30,R0
00025a 01db      	MOVW R26,R22
00025b 93ec      	ST   X,R30
                 ; 0000 00D4                             }
                 ; 0000 00D5                         }
                 _0x37:
00025c 5f1f      	SUBI R17,-1
00025d cfd1      	RJMP _0x35
                 _0x36:
                 ; 0000 00D6                         delay_ms(100);
00025e e6a4      	LDI  R26,LOW(100)
00025f e0b0      	LDI  R27,0
000260 940e 079d 	CALL _delay_ms
                 ; 0000 00D7                         for(i=0;i<16;i++)
000262 e010      	LDI  R17,LOW(0)
                 _0x3D:
000263 3110      	CPI  R17,16
000264 f440      	BRSH _0x3E
                 ; 0000 00D8                         {
                 ; 0000 00D9                         printf("%X ",key[i]);
000265 940e 06e9 	CALL SUBOPT_0x8
000267 01de      	MOVW R26,R28
000268 9652      	ADIW R26,18
000269 940e 06f0 	CALL SUBOPT_0x9
                 ; 0000 00DA                         }
00026b 5f1f      	SUBI R17,-1
00026c cff6      	RJMP _0x3D
                 _0x3E:
                 ; 0000 00DB                         break;
00026d c031      	RJMP _0x26
                 ; 0000 00DC                         case '4':
                 _0x33:
00026e 33e4      	CPI  R30,LOW(0x34)
00026f e0a0      	LDI  R26,HIGH(0x34)
000270 07fa      	CPC  R31,R26
000271 f529      	BRNE _0x43
                 ; 0000 00DD                         printf("\r\n\tWatting Encrypt !!!");
                +
000272 e9ea     +LDI R30 , LOW ( 2 * _0x0 + ( 28 ) )
000273 e0f1     +LDI R31 , HIGH ( 2 * _0x0 + ( 28 ) )
                 	__POINTW1FN _0x0,28
000274 940e 0711 	CALL SUBOPT_0xC
                 ; 0000 00DE //                        printf("\r\nPlaint Text: ");
                 ; 0000 00DF //                        for(i=0;i<16;i++)
                 ; 0000 00E0 //                            printf("%X ",text[i]);
                 ; 0000 00E1 //                            printf("\r\nKey: ");
                 ; 0000 00E2 //                        for(i=0;i<16;i++)
                 ; 0000 00E3 //                            printf("%X ",key[i]);
                 ; 0000 00E4                         Encrypt(text,key,cipher);
000276 01fe      	MOVW R30,R28
000277 96b0      	ADIW R30,32
000278 93fa      	ST   -Y,R31
000279 93ea      	ST   -Y,R30
00027a 01fe      	MOVW R30,R28
00027b 9672      	ADIW R30,18
00027c 93fa      	ST   -Y,R31
00027d 93ea      	ST   -Y,R30
00027e 01de      	MOVW R26,R28
00027f 9614      	ADIW R26,4
000280 d0b8      	RCALL _Encrypt
                 ; 0000 00E5                         delay_ms(500);
000281 efa4      	LDI  R26,LOW(500)
000282 e0b1      	LDI  R27,HIGH(500)
000283 940e 079d 	CALL _delay_ms
                 ; 0000 00E6                         printf("\r\nCipher Text: ");
                +
000285 ebe1     +LDI R30 , LOW ( 2 * _0x0 + ( 51 ) )
000286 e0f1     +LDI R31 , HIGH ( 2 * _0x0 + ( 51 ) )
                 	__POINTW1FN _0x0,51
000287 940e 0711 	CALL SUBOPT_0xC
                 ; 0000 00E7                         for(i=0;i<16;i++)
000289 e010      	LDI  R17,LOW(0)
                 _0x41:
00028a 3110      	CPI  R17,16
00028b f440      	BRSH _0x42
                 ; 0000 00E8                             printf("%X ",cipher[i]);
00028c 940e 06e9 	CALL SUBOPT_0x8
00028e 01de      	MOVW R26,R28
00028f 9612      	ADIW R26,2
000290 940e 06f0 	CALL SUBOPT_0x9
000292 5f1f      	SUBI R17,-1
000293 cff6      	RJMP _0x41
                 _0x42:
                 ; 0000 00E9 printf("\r\n\tEnd Encrypt AES-128 !!!\r\n");
                +
000294 ece1     +LDI R30 , LOW ( 2 * _0x0 + ( 67 ) )
000295 e0f1     +LDI R31 , HIGH ( 2 * _0x0 + ( 67 ) )
                 	__POINTW1FN _0x0,67
000296 c002      	RJMP _0x49
                 ; 0000 00EA //                        Decrypt(cipher,key,cipher);
                 ; 0000 00EB //                        printf("\r\n\tWatting Decrypt !!!");
                 ; 0000 00EC //                        delay_ms(500);
                 ; 0000 00ED //                        printf("\r\nPlaint Text: ");
                 ; 0000 00EE //                        for(i=0;i<16;i++)
                 ; 0000 00EF //                            printf("%X ",cipher[i]);
                 ; 0000 00F0                         break;
                 ; 0000 00F1                         default: printf("\r\nNULL\r\n");
                 _0x43:
                +
000297 edee     +LDI R30 , LOW ( 2 * _0x0 + ( 96 ) )
000298 e0f1     +LDI R31 , HIGH ( 2 * _0x0 + ( 96 ) )
                 	__POINTW1FN _0x0,96
                 _0x49:
000299 93fa      	ST   -Y,R31
00029a 93ea      	ST   -Y,R30
00029b e080      	LDI  R24,0
00029c 940e 0664 	CALL _printf
00029e 9622      	ADIW R28,2
                 ; 0000 00F2                     }
                 _0x26:
                 ; 0000 00F3                 }
                 ; 0000 00F4             }
                 _0x23:
                 ; 0000 00F5             ck = 0;
                 _0x20:
00029f e000      	LDI  R16,LOW(0)
                 ; 0000 00F6             i=0;
0002a0 e010      	LDI  R17,LOW(0)
                 ; 0000 00F7         }
                 ; 0000 00F8       }
                 _0x1D:
0002a1 cef2      	RJMP _0xF
                 ; 0000 00F9 }
                 _0x44:
0002a2 cfff      	RJMP _0x44
                 ; .FEND
                 ;#include "aes.h"
                 ;
                 ;flash unsigned char sbox[256] =
                 ; {
                 ;    0x63, 0x7C, 0x77, 0x7B, 0xF2, 0x6B, 0x6F, 0xC5, 0x30, 0x01, 0x67, 0x2B, 0xFE, 0xD7, 0xAB, 0x76,
                 ;    0xCA, 0x82, 0xC9, 0x7D, 0xFA, 0x59, 0x47, 0xF0, 0xAD, 0xD4, 0xA2, 0xAF, 0x9C, 0xA4, 0x72, 0xC0,
                 ;    0xB7, 0xFD, 0x93, 0x26, 0x36, 0x3F, 0xF7, 0xCC, 0x34, 0xA5, 0xE5, 0xF1, 0x71, 0xD8, 0x31, 0x15,
                 ;    0x04, 0xC7, 0x23, 0xC3, 0x18, 0x96, 0x05, 0x9A, 0x07, 0x12, 0x80, 0xE2, 0xEB, 0x27, 0xB2, 0x75,
                 ;    0x09, 0x83, 0x2C, 0x1A, 0x1B, 0x6E, 0x5A, 0xA0, 0x52, 0x3B, 0xD6, 0xB3, 0x29, 0xE3, 0x2F, 0x84,
                 ;    0x53, 0xD1, 0x00, 0xED, 0x20, 0xFC, 0xB1, 0x5B, 0x6A, 0xCB, 0xBE, 0x39, 0x4A, 0x4C, 0x58, 0xCF,
                 ;    0xD0, 0xEF, 0xAA, 0xFB, 0x43, 0x4D, 0x33, 0x85, 0x45, 0xF9, 0x02, 0x7F, 0x50, 0x3C, 0x9F, 0xA8,
                 ;    0x51, 0xA3, 0x40, 0x8F, 0x92, 0x9D, 0x38, 0xF5, 0xBC, 0xB6, 0xDA, 0x21, 0x10, 0xFF, 0xF3, 0xD2,
                 ;    0xCD, 0x0C, 0x13, 0xEC, 0x5F, 0x97, 0x44, 0x17, 0xC4, 0xA7, 0x7E, 0x3D, 0x64, 0x5D, 0x19, 0x73,
                 ;    0x60, 0x81, 0x4F, 0xDC, 0x22, 0x2A, 0x90, 0x88, 0x46, 0xEE, 0xB8, 0x14, 0xDE, 0x5E, 0x0B, 0xDB,
                 ;    0xE0, 0x32, 0x3A, 0x0A, 0x49, 0x06, 0x24, 0x5C, 0xC2, 0xD3, 0xAC, 0x62, 0x91, 0x95, 0xE4, 0x79,
                 ;    0xE7, 0xC8, 0x37, 0x6D, 0x8D, 0xD5, 0x4E, 0xA9, 0x6C, 0x56, 0xF4, 0xEA, 0x65, 0x7A, 0xAE, 0x08,
                 ;    0xBA, 0x78, 0x25, 0x2E, 0x1C, 0xA6, 0xB4, 0xC6, 0xE8, 0xDD, 0x74, 0x1F, 0x4B, 0xBD, 0x8B, 0x8A,
                 ;    0x70, 0x3E, 0xB5, 0x66, 0x48, 0x03, 0xF6, 0x0E, 0x61, 0x35, 0x57, 0xB9, 0x86, 0xC1, 0x1D, 0x9E,
                 ;    0xE1, 0xF8, 0x98, 0x11, 0x69, 0xD9, 0x8E, 0x94, 0x9B, 0x1E, 0x87, 0xE9, 0xCE, 0x55, 0x28, 0xDF,
                 ;    0x8C, 0xA1, 0x89, 0x0D, 0xBF, 0xE6, 0x42, 0x68, 0x41, 0x99, 0x2D, 0x0F, 0xB0, 0x54, 0xBB, 0x16
                 ; };
                 ;
                 ;//flash unsigned char inv_sbox[256] =
                 ;// {
                 ;//    0x52, 0x09, 0x6A, 0xD5, 0x30, 0x36, 0xA5, 0x38, 0xBF, 0x40, 0xA3, 0x9E, 0x81, 0xF3, 0xD7, 0xFB,
                 ;//    0x7C, 0xE3, 0x39, 0x82, 0x9B, 0x2F, 0xFF, 0x87, 0x34, 0x8E, 0x43, 0x44, 0xC4, 0xDE, 0xE9, 0xCB,
                 ;//    0x54, 0x7B, 0x94, 0x32, 0xA6, 0xC2, 0x23, 0x3D, 0xEE, 0x4C, 0x95, 0x0B, 0x42, 0xFA, 0xC3, 0x4E,
                 ;//    0x08, 0x2E, 0xA1, 0x66, 0x28, 0xD9, 0x24, 0xB2, 0x76, 0x5B, 0xA2, 0x49, 0x6D, 0x8B, 0xD1, 0x25,
                 ;//    0x72, 0xF8, 0xF6, 0x64, 0x86, 0x68, 0x98, 0x16, 0xD4, 0xA4, 0x5C, 0xCC, 0x5D, 0x65, 0xB6, 0x92,
                 ;//    0x6C, 0x70, 0x48, 0x50, 0xFD, 0xED, 0xB9, 0xDA, 0x5E, 0x15, 0x46, 0x57, 0xA7, 0x8D, 0x9D, 0x84,
                 ;//    0x90, 0xD8, 0xAB, 0x00, 0x8C, 0xBC, 0xD3, 0x0A, 0xF7, 0xE4, 0x58, 0x05, 0xB8, 0xB3, 0x45, 0x06,
                 ;//    0xD0, 0x2C, 0x1E, 0x8F, 0xCA, 0x3F, 0x0F, 0x02, 0xC1, 0xAF, 0xBD, 0x03, 0x01, 0x13, 0x8A, 0x6B,
                 ;//    0x3A, 0x91, 0x11, 0x41, 0x4F, 0x67, 0xDC, 0xEA, 0x97, 0xF2, 0xCF, 0xCE, 0xF0, 0xB4, 0xE6, 0x73,
                 ;//    0x96, 0xAC, 0x74, 0x22, 0xE7, 0xAD, 0x35, 0x85, 0xE2, 0xF9, 0x37, 0xE8, 0x1C, 0x75, 0xDF, 0x6E,
                 ;//    0x47, 0xF1, 0x1A, 0x71, 0x1D, 0x29, 0xC5, 0x89, 0x6F, 0xB7, 0x62, 0x0E, 0xAA, 0x18, 0xBE, 0x1B,
                 ;//    0xFC, 0x56, 0x3E, 0x4B, 0xC6, 0xD2, 0x79, 0x20, 0x9A, 0xDB, 0xC0, 0xFE, 0x78, 0xCD, 0x5A, 0xF4,
                 ;//    0x1F, 0xDD, 0xA8, 0x33, 0x88, 0x07, 0xC7, 0x31, 0xB1, 0x12, 0x10, 0x59, 0x27, 0x80, 0xEC, 0x5F,
                 ;//    0x60, 0x51, 0x7F, 0xA9, 0x19, 0xB5, 0x4A, 0x0D, 0x2D, 0xE5, 0x7A, 0x9F, 0x93, 0xC9, 0x9C, 0xEF,
                 ;//    0xA0, 0xE0, 0x3B, 0x4D, 0xAE, 0x2A, 0xF5, 0xB0, 0xC8, 0xEB, 0xBB, 0x3C, 0x83, 0x53, 0x99, 0x61,
                 ;//    0x17, 0x2B, 0x04, 0x7E, 0xBA, 0x77, 0xD6, 0x26, 0xE1, 0x69, 0x14, 0x63, 0x55, 0x21, 0x0C, 0x7D
                 ;// };
                 ;unsigned char rcon[10] = { 0x01, 0x02, 0x04, 0x08, 0x10, 0x20, 0x40, 0x80, 0x1b, 0x36};
                 
                 	.DSEG
                 ;
                 ;void Encrypt(unsigned char *in,unsigned char *key,unsigned char *out);
                 ;//void Decrypt(unsigned char *in,unsigned char *key,unsigned char *out);
                 ;
                 ;// OverView Function Encrypt
                 ;void Expankey(unsigned char *key,unsigned char *expkey);
                 ;void SubBytes(unsigned char *state);
                 ;void AddRoundKey(unsigned char *state,unsigned char *expkey,unsigned char n);
                 ;void MixColumns(unsigned char *state);
                 ;void ShiftRows(unsigned char *state);
                 ;
                 ;
                 ;//    OverView Function Decrypt
                 ;//void InvShiftRows(unsigned char *state);
                 ;//void InvSubBytes(unsigned char *state);
                 ;//void InvMixColumns(unsigned char *state);
                 ;
                 ;// function for all
                 ;// function multilply 2 number
                 ;//unsigned char gmul(unsigned char a, unsigned char b) {
                 ;//    unsigned char p = 0; /* the product of the multiplication */
                 ;//    while (a && b) {
                 ;//            if (b & 1) /* if b is odd, then add the corresponding a to p (final product = sum of all a's corresponding ...
                 ;//                p ^= a; /* since we're in GF(2^m), addition is an XOR */
                 ;//
                 ;//            if (a & 0x80) /* GF modulo: if a >= 128, then it will overflow when shifted left, so reduce */
                 ;//                a = (a << 1) ^ 0x11b; /* XOR with the primitive polynomial x^8 + x^4 + x^3 + x + 1 (0b1_0001_1011)  y ...
                 ;//            else
                 ;//                a <<= 1; /* equivalent to a*2 */
                 ;//            b >>= 1; /* equivalent to b // 2 */
                 ;//    }
                 ;//    return p;
                 ;//}
                 ;
                 ;void Expankey(unsigned char *key,unsigned char *expkey)
                 ; 0001 004E {
                 
                 	.CSEG
                 _Expankey:
                 ; .FSTART _Expankey
                 ; 0001 004F     unsigned char j,i;
                 ; 0001 0050     for (j=0;j<16;j++)
0002a3 93ba      	ST   -Y,R27
0002a4 93aa      	ST   -Y,R26
0002a5 931a      	ST   -Y,R17
0002a6 930a      	ST   -Y,R16
                 ;	*key -> Y+4
                 ;	*expkey -> Y+2
                 ;	j -> R17
                 ;	i -> R16
0002a7 e010      	LDI  R17,LOW(0)
                 _0x20005:
0002a8 3110      	CPI  R17,16
0002a9 f468      	BRSH _0x20006
                 ; 0001 0051     {
                 ; 0001 0052         expkey[j] = key[j];
0002aa 2fe1      	MOV  R30,R17
0002ab 81aa      	LDD  R26,Y+2
0002ac 81bb      	LDD  R27,Y+2+1
0002ad 940e 0718 	CALL SUBOPT_0xD
0002af 81ac      	LDD  R26,Y+4
0002b0 81bd      	LDD  R27,Y+4+1
0002b1 940e 071d 	CALL SUBOPT_0xE
0002b3 01d0      	MOVW R26,R0
0002b4 93ec      	ST   X,R30
                 ; 0001 0053     }
0002b5 5f1f      	SUBI R17,-1
0002b6 cff1      	RJMP _0x20005
                 _0x20006:
                 ; 0001 0054 
                 ; 0001 0055     for (i=1;i<11;i++)
0002b7 e001      	LDI  R16,LOW(1)
                 _0x20008:
0002b8 300b      	CPI  R16,11
0002b9 f008      	BRLO PC+2
0002ba c05e      	RJMP _0x20009
                 ; 0001 0056     {
                 ; 0001 0057         for(j=0;j<16;j++)
0002bb e010      	LDI  R17,LOW(0)
                 _0x2000B:
0002bc 3110      	CPI  R17,16
0002bd f008      	BRLO PC+2
0002be c058      	RJMP _0x2000C
                 ; 0001 0058         {
                 ; 0001 0059             if (j>=0&&j<4) {
0002bf 3010      	CPI  R17,0
0002c0 f010      	BRLO _0x2000E
0002c1 3014      	CPI  R17,4
0002c2 f008      	BRLO _0x2000F
                 _0x2000E:
0002c3 c02b      	RJMP _0x2000D
                 _0x2000F:
                 ; 0001 005A                 if (j==3) {
0002c4 3013      	CPI  R17,3
0002c5 f429      	BRNE _0x20010
                 ; 0001 005B                     expkey[i*16+j] = sbox[expkey[i*16+j-7]];
0002c6 940e 0722 	CALL SUBOPT_0xF
0002c8 e0e7      	LDI  R30,LOW(7)
0002c9 e0f0      	LDI  R31,HIGH(7)
0002ca c004      	RJMP _0x2002A
                 ; 0001 005C                 } else {
                 _0x20010:
                 ; 0001 005D                     expkey[i*16+j] = sbox[expkey[i*16+j-3]];
0002cb 940e 0722 	CALL SUBOPT_0xF
0002cd e0e3      	LDI  R30,LOW(3)
0002ce e0f0      	LDI  R31,HIGH(3)
                 _0x2002A:
0002cf 940e 07e5 	CALL __SWAPW12
0002d1 940e 0734 	CALL SUBOPT_0x10
0002d3 91ec      	LD   R30,X
0002d4 e0f0      	LDI  R31,0
0002d5 59e8      	SUBI R30,LOW(-_sbox*2)
0002d6 4fff      	SBCI R31,HIGH(-_sbox*2)
0002d7 91e4      	LPM  R30,Z
0002d8 01db      	MOVW R26,R22
0002d9 93ec      	ST   X,R30
                 ; 0001 005E                 }
                 ; 0001 005F                 if (j==0) expkey[i*16+j] ^= expkey[i*16+j-16] ^ rcon[i-1];
0002da 3010      	CPI  R17,0
0002db f459      	BRNE _0x20012
0002dc 940e 073b 	CALL SUBOPT_0x11
0002de 91ac      	LD   R26,X
0002df 2fe0      	MOV  R30,R16
0002e0 e0f0      	LDI  R31,0
0002e1 9731      	SBIW R30,1
0002e2 5de5      	SUBI R30,LOW(-_rcon)
0002e3 4ffc      	SBCI R31,HIGH(-_rcon)
0002e4 81e0      	LD   R30,Z
0002e5 27ea      	EOR  R30,R26
0002e6 c003      	RJMP _0x2002B
                 ; 0001 0060                 else    expkey[i*16+j] ^= expkey[i*16+j-16];
                 _0x20012:
0002e7 940e 073b 	CALL SUBOPT_0x11
0002e9 91ec      	LD   R30,X
                 _0x2002B:
0002ea 27e6      	EOR  R30,R22
                +
0002eb 2fa7     +MOV R26 , R23
0002ec 2fb8     +MOV R27 , R24
                 	__GETW2R 23,24
0002ed 93ec      	ST   X,R30
                 ; 0001 0061             } else {
0002ee c026      	RJMP _0x20014
                 _0x2000D:
                 ; 0001 0062                 expkey[i*16+j] = expkey[i*16+j-4] ^ expkey[i*16+j-16];
0002ef e1e0      	LDI  R30,LOW(16)
0002f0 9fe0      	MUL  R30,R16
0002f1 01f0      	MOVW R30,R0
0002f2 940e 0753 	CALL SUBOPT_0x12
0002f4 0fea      	ADD  R30,R26
0002f5 1ffb      	ADC  R31,R27
                +
0002f6 2f7e     +MOV R23 , R30
0002f7 2f8f     +MOV R24 , R31
                 	__PUTW1R 23,24
0002f8 01d0      	MOVW R26,R0
0002f9 27ee      	CLR  R30
0002fa 0fa1      	ADD  R26,R17
0002fb 1fbe      	ADC  R27,R30
0002fc e0e4      	LDI  R30,LOW(4)
0002fd e0f0      	LDI  R31,HIGH(4)
0002fe 940e 07e5 	CALL __SWAPW12
000300 940e 0734 	CALL SUBOPT_0x10
000302 916c      	LD   R22,X
000303 e1e0      	LDI  R30,LOW(16)
000304 9fe0      	MUL  R30,R16
000305 01f0      	MOVW R30,R0
000306 01df      	MOVW R26,R30
000307 27ee      	CLR  R30
000308 0fa1      	ADD  R26,R17
000309 1fbe      	ADC  R27,R30
00030a e1e0      	LDI  R30,LOW(16)
00030b e0f0      	LDI  R31,HIGH(16)
00030c 940e 07e5 	CALL __SWAPW12
00030e 940e 0734 	CALL SUBOPT_0x10
000310 91ec      	LD   R30,X
000311 27e6      	EOR  R30,R22
                +
000312 2fa7     +MOV R26 , R23
000313 2fb8     +MOV R27 , R24
                 	__GETW2R 23,24
000314 93ec      	ST   X,R30
                 ; 0001 0063             }
                 _0x20014:
                 ; 0001 0064         }
000315 5f1f      	SUBI R17,-1
000316 cfa5      	RJMP _0x2000B
                 _0x2000C:
                 ; 0001 0065     }
000317 5f0f      	SUBI R16,-1
000318 cf9f      	RJMP _0x20008
                 _0x20009:
                 ; 0001 0066 }
000319 8119      	LDD  R17,Y+1
00031a 8108      	LDD  R16,Y+0
00031b c01b      	RJMP _0x2060002
                 ; .FEND
                 ;
                 ;void AddRoundKey(unsigned char *state,unsigned char *expkey,unsigned char n)
                 ; 0001 0069 {
                 _AddRoundKey:
                 ; .FSTART _AddRoundKey
                 ; 0001 006A     unsigned char i;
                 ; 0001 006B     for (i=0;i<16;i++){
00031c 93aa      	ST   -Y,R26
00031d 931a      	ST   -Y,R17
                 ;	*state -> Y+4
                 ;	*expkey -> Y+2
                 ;	n -> Y+1
                 ;	i -> R17
00031e e010      	LDI  R17,LOW(0)
                 _0x20016:
00031f 3110      	CPI  R17,16
000320 f4a8      	BRSH _0x20017
                 ; 0001 006C         state[i] ^= expkey[n-16+i];
000321 2fe1      	MOV  R30,R17
000322 81ac      	LDD  R26,Y+4
000323 81bd      	LDD  R27,Y+4+1
000324 e0f0      	LDI  R31,0
000325 0fea      	ADD  R30,R26
000326 1ffb      	ADC  R31,R27
000327 01bf      	MOVW R22,R30
000328 8000      	LD   R0,Z
000329 81e9      	LDD  R30,Y+1
00032a e0f0      	LDI  R31,0
00032b 9770      	SBIW R30,16
00032c 940e 0753 	CALL SUBOPT_0x12
00032e 0fae      	ADD  R26,R30
00032f 1fbf      	ADC  R27,R31
000330 91ec      	LD   R30,X
000331 25e0      	EOR  R30,R0
000332 01db      	MOVW R26,R22
000333 93ec      	ST   X,R30
                 ; 0001 006D     }
000334 5f1f      	SUBI R17,-1
000335 cfe9      	RJMP _0x20016
                 _0x20017:
                 ; 0001 006E }
000336 8118      	LDD  R17,Y+0
                 _0x2060002:
000337 9626      	ADIW R28,6
000338 9508      	RET
                 ; .FEND
                 ;
                 ;// Begin function Encrypt
                 ;void Encrypt(unsigned char *in,unsigned char *key,unsigned char *out)
                 ; 0001 0072 {
                 _Encrypt:
                 ; .FSTART _Encrypt
                 ; 0001 0073     unsigned char expkey[176],i;
                 ; 0001 0074     unsigned char state[16];
                 ; 0001 0075 
                 ; 0001 0076     for (i=0;i<16;i++)
000339 93ba      	ST   -Y,R27
00033a 93aa      	ST   -Y,R26
00033b 97ef      	SBIW R28,63
00033c 97ef      	SBIW R28,63
00033d 97ef      	SBIW R28,63
00033e 9723      	SBIW R28,3
00033f 931a      	ST   -Y,R17
                 ;	*in -> Y+197
                 ;	*key -> Y+195
                 ;	*out -> Y+193
                 ;	expkey -> Y+17
                 ;	i -> R17
                 ;	state -> Y+1
000340 e010      	LDI  R17,LOW(0)
                 _0x20019:
000341 3110      	CPI  R17,16
000342 f488      	BRSH _0x2001A
                 ; 0001 0077         state[i] = in[i];
000343 940e 075b 	CALL SUBOPT_0x13
000345 0fea      	ADD  R30,R26
000346 1ffb      	ADC  R31,R27
000347 01bf      	MOVW R22,R30
                +
000348 01de     +MOVW R26 , R28
000349 53ab     +SUBI R26 , LOW ( - 197 )
00034a 4fbf     +SBCI R27 , HIGH ( - 197 )
00034b 900d     +LD R0 , X +
00034c 91bc     +LD R27 , X
00034d 2da0     +MOV R26 , R0
                 	__GETW2SX 197
00034e 940e 071d 	CALL SUBOPT_0xE
000350 01db      	MOVW R26,R22
000351 93ec      	ST   X,R30
000352 5f1f      	SUBI R17,-1
000353 cfed      	RJMP _0x20019
                 _0x2001A:
                 ; 0001 0079 Expankey(key,expkey);
                +
000354 01fe     +MOVW R30 , R28
000355 53ed     +SUBI R30 , LOW ( - 195 )
000356 4fff     +SBCI R31 , HIGH ( - 195 )
000357 9001     +LD R0 , Z +
000358 81f0     +LD R31 , Z
000359 2de0     +MOV R30 , R0
                 	__GETW1SX 195
00035a 93fa      	ST   -Y,R31
00035b 93ea      	ST   -Y,R30
00035c 01de      	MOVW R26,R28
00035d 9653      	ADIW R26,19
00035e df44      	RCALL _Expankey
                 ; 0001 007A     AddRoundKey(state,expkey,16);
00035f 940e 0760 	CALL SUBOPT_0x14
000361 dfba      	RCALL _AddRoundKey
                 ; 0001 007B     for (i=2;i<11;i++)
000362 e012      	LDI  R17,LOW(2)
                 _0x2001C:
000363 301b      	CPI  R17,11
000364 f468      	BRSH _0x2001D
                 ; 0001 007C     {
                 ; 0001 007D         SubBytes(state);
000365 940e 076a 	CALL SUBOPT_0x15
                 ; 0001 007E         ShiftRows(state);
                 ; 0001 007F         MixColumns(state);
000367 01de      	MOVW R26,R28
000368 9611      	ADIW R26,1
000369 d044      	RCALL _MixColumns
                 ; 0001 0080         AddRoundKey(state,expkey,i*16);
00036a 940e 0760 	CALL SUBOPT_0x14
00036c 021a      	MULS R17,R26
00036d 01f0      	MOVW R30,R0
00036e 2fae      	MOV  R26,R30
00036f dfac      	RCALL _AddRoundKey
                 ; 0001 0081     }
000370 5f1f      	SUBI R17,-1
000371 cff1      	RJMP _0x2001C
                 _0x2001D:
                 ; 0001 0082     SubBytes(state);
000372 940e 076a 	CALL SUBOPT_0x15
                 ; 0001 0083     ShiftRows(state);
                 ; 0001 0084     AddRoundKey(state,expkey,i*16);
000374 940e 0760 	CALL SUBOPT_0x14
000376 021a      	MULS R17,R26
000377 01f0      	MOVW R30,R0
000378 2fae      	MOV  R26,R30
000379 dfa2      	RCALL _AddRoundKey
                 ; 0001 0085 
                 ; 0001 0086     for (i=0;i<16;i++)
00037a e010      	LDI  R17,LOW(0)
                 _0x2001F:
00037b 3110      	CPI  R17,16
00037c f490      	BRSH _0x20020
                 ; 0001 0087         out[i] = state[i];
00037d 2fe1      	MOV  R30,R17
                +
00037e 01de     +MOVW R26 , R28
00037f 53af     +SUBI R26 , LOW ( - 193 )
000380 4fbf     +SBCI R27 , HIGH ( - 193 )
000381 900d     +LD R0 , X +
000382 91bc     +LD R27 , X
000383 2da0     +MOV R26 , R0
                 	__GETW2SX 193
000384 940e 0718 	CALL SUBOPT_0xD
000386 940e 075b 	CALL SUBOPT_0x13
000388 0fae      	ADD  R26,R30
000389 1fbf      	ADC  R27,R31
00038a 91ec      	LD   R30,X
00038b 01d0      	MOVW R26,R0
00038c 93ec      	ST   X,R30
00038d 5f1f      	SUBI R17,-1
00038e cfec      	RJMP _0x2001F
                 _0x20020:
                 ; 0001 0088 }
00038f 8118      	LDD  R17,Y+0
000390 96ef      	ADIW R28,63
000391 96ef      	ADIW R28,63
000392 96ef      	ADIW R28,63
000393 962a      	ADIW R28,10
000394 9508      	RET
                 ; .FEND
                 ;
                 ;void SubBytes(unsigned char *state)
                 ; 0001 008B {
                 _SubBytes:
                 ; .FSTART _SubBytes
                 ; 0001 008C     unsigned char i;
                 ; 0001 008D     for (i=0;i<16;i++)
000395 93ba      	ST   -Y,R27
000396 93aa      	ST   -Y,R26
000397 931a      	ST   -Y,R17
                 ;	*state -> Y+1
                 ;	i -> R17
000398 e010      	LDI  R17,LOW(0)
                 _0x20022:
000399 3110      	CPI  R17,16
00039a f488      	BRSH _0x20023
                 ; 0001 008E         state[i] = sbox[state[i]];
00039b 2fe1      	MOV  R30,R17
00039c 81a9      	LDD  R26,Y+1
00039d 81ba      	LDD  R27,Y+1+1
00039e 940e 0718 	CALL SUBOPT_0xD
0003a0 81a9      	LDD  R26,Y+1
0003a1 81ba      	LDD  R27,Y+1+1
0003a2 940e 071d 	CALL SUBOPT_0xE
0003a4 e0f0      	LDI  R31,0
0003a5 59e8      	SUBI R30,LOW(-_sbox*2)
0003a6 4fff      	SBCI R31,HIGH(-_sbox*2)
0003a7 91e4      	LPM  R30,Z
0003a8 01d0      	MOVW R26,R0
0003a9 93ec      	ST   X,R30
0003aa 5f1f      	SUBI R17,-1
0003ab cfed      	RJMP _0x20022
                 _0x20023:
                 ; 0001 008F }
0003ac 8118      	LDD  R17,Y+0
0003ad c180      	RJMP _0x2060001
                 ; .FEND
                 ;
                 ;void MixColumns(unsigned char *state)
                 ; 0001 0092 {
                 _MixColumns:
                 ; .FSTART _MixColumns
                 ; 0001 0093     unsigned char a[16];
                 ; 0001 0094     unsigned char b[16];
                 ; 0001 0095     unsigned char c;
                 ; 0001 0096     unsigned char h;
                 ; 0001 0097     /* The array 'a' is simply a copy of the input array 'r'
                 ; 0001 0098      * The array 'b' is each element of the array 'a' multiplied by 2
                 ; 0001 0099      * in Rijndael's Galois field
                 ; 0001 009A      * a[n] ^ b[n] is element n multiplied by 3 in Rijndael's Galois field */
                 ; 0001 009B     for (c = 0; c < 16; c++) {
0003ae 93ba      	ST   -Y,R27
0003af 93aa      	ST   -Y,R26
0003b0 97a0      	SBIW R28,32
0003b1 931a      	ST   -Y,R17
0003b2 930a      	ST   -Y,R16
                 ;	*state -> Y+34
                 ;	a -> Y+18
                 ;	b -> Y+2
                 ;	c -> R17
                 ;	h -> R16
0003b3 e010      	LDI  R17,LOW(0)
                 _0x20025:
0003b4 3110      	CPI  R17,16
0003b5 f550      	BRSH _0x20026
                 ; 0001 009C         a[c] = state[c];
0003b6 2fe1      	MOV  R30,R17
0003b7 e0f0      	LDI  R31,0
0003b8 01de      	MOVW R26,R28
0003b9 9652      	ADIW R26,18
0003ba 940e 0772 	CALL SUBOPT_0x16
0003bc 01d0      	MOVW R26,R0
0003bd 93ec      	ST   X,R30
                 ; 0001 009D         /* h is 0xff if the high bit of r[c] is set, 0 otherwise */
                 ; 0001 009E         h = (unsigned char)((signed char)state[c] >> 7); /* arithmetic right shift, thus shifting in either zeros or one ...
0003be a1aa      	LDD  R26,Y+34
0003bf a1bb      	LDD  R27,Y+34+1
0003c0 27ee      	CLR  R30
0003c1 0fa1      	ADD  R26,R17
0003c2 1fbe      	ADC  R27,R30
0003c3 91ac      	LD   R26,X
0003c4 e0e7      	LDI  R30,LOW(7)
0003c5 940e 07af 	CALL __ASRB12
0003c7 2f0e      	MOV  R16,R30
                 ; 0001 009F         b[c] = state[c] << 1; /* implicitly removes high bit because b[c] is an 8-bit char, so we xor by 0x1b and not 0x ...
0003c8 2fe1      	MOV  R30,R17
0003c9 e0f0      	LDI  R31,0
0003ca 01de      	MOVW R26,R28
0003cb 9612      	ADIW R26,2
0003cc 940e 0772 	CALL SUBOPT_0x16
0003ce 0fee      	LSL  R30
0003cf 01d0      	MOVW R26,R0
0003d0 93ec      	ST   X,R30
                 ; 0001 00A0         b[c] ^= 0x1B & h; /* Rijndael's Galois field */
0003d1 2fe1      	MOV  R30,R17
0003d2 e0f0      	LDI  R31,0
0003d3 01de      	MOVW R26,R28
0003d4 9612      	ADIW R26,2
0003d5 0fea      	ADD  R30,R26
0003d6 1ffb      	ADC  R31,R27
0003d7 010f      	MOVW R0,R30
0003d8 81a0      	LD   R26,Z
0003d9 2fe0      	MOV  R30,R16
0003da 71eb      	ANDI R30,LOW(0x1B)
0003db 27ea      	EOR  R30,R26
0003dc 01d0      	MOVW R26,R0
0003dd 93ec      	ST   X,R30
                 ; 0001 00A1     }
0003de 5f1f      	SUBI R17,-1
0003df cfd4      	RJMP _0x20025
                 _0x20026:
                 ; 0001 00A2 
                 ; 0001 00A3     state[0] = b[0] ^ a[3] ^ a[2] ^ b[1] ^ a[1]; /* 2 * a0 + a3 + a2 + 3 * a1 */
0003e0 89ed      	LDD  R30,Y+21
0003e1 81aa      	LDD  R26,Y+2
0003e2 27ea      	EOR  R30,R26
0003e3 89ac      	LDD  R26,Y+20
0003e4 27ea      	EOR  R30,R26
0003e5 81ab      	LDD  R26,Y+3
0003e6 27ea      	EOR  R30,R26
0003e7 89ab      	LDD  R26,Y+19
0003e8 27ea      	EOR  R30,R26
0003e9 a1aa      	LDD  R26,Y+34
0003ea a1bb      	LDD  R27,Y+34+1
0003eb 93ec      	ST   X,R30
                 ; 0001 00A4     state[1] = b[1] ^ a[0] ^ a[3] ^ b[2] ^ a[2]; /* 2 * a1 + a0 + a3 + 3 * a2 */
0003ec 89ea      	LDD  R30,Y+18
0003ed 81ab      	LDD  R26,Y+3
0003ee 27ea      	EOR  R30,R26
0003ef 89ad      	LDD  R26,Y+21
0003f0 27ea      	EOR  R30,R26
0003f1 81ac      	LDD  R26,Y+4
0003f2 27ea      	EOR  R30,R26
0003f3 89ac      	LDD  R26,Y+20
0003f4 27ea      	EOR  R30,R26
                +
0003f5 a1aa     +LDD R26 , Y + 34
0003f6 a1bb     +LDD R27 , Y + 34 + 1
0003f7 9611     +ADIW R26 , 1
0003f8 93ec     +ST X , R30
                 	__PUTB1SNS 34,1
                 ; 0001 00A5     state[2] = b[2] ^ a[1] ^ a[0] ^ b[3] ^ a[3]; /* 2 * a2 + a1 + a0 + 3 * a3 */
0003f9 89eb      	LDD  R30,Y+19
0003fa 81ac      	LDD  R26,Y+4
0003fb 27ea      	EOR  R30,R26
0003fc 89aa      	LDD  R26,Y+18
0003fd 27ea      	EOR  R30,R26
0003fe 81ad      	LDD  R26,Y+5
0003ff 27ea      	EOR  R30,R26
000400 89ad      	LDD  R26,Y+21
000401 27ea      	EOR  R30,R26
                +
000402 a1aa     +LDD R26 , Y + 34
000403 a1bb     +LDD R27 , Y + 34 + 1
000404 9612     +ADIW R26 , 2
000405 93ec     +ST X , R30
                 	__PUTB1SNS 34,2
                 ; 0001 00A6     state[3] = b[3] ^ a[2] ^ a[1] ^ b[0] ^ a[0]; /* 2 * a3 + a2 + a1 + 3 * a0 */
000406 89ec      	LDD  R30,Y+20
000407 81ad      	LDD  R26,Y+5
000408 27ea      	EOR  R30,R26
000409 89ab      	LDD  R26,Y+19
00040a 27ea      	EOR  R30,R26
00040b 81aa      	LDD  R26,Y+2
00040c 27ea      	EOR  R30,R26
00040d 89aa      	LDD  R26,Y+18
00040e 27ea      	EOR  R30,R26
                +
00040f a1aa     +LDD R26 , Y + 34
000410 a1bb     +LDD R27 , Y + 34 + 1
000411 9613     +ADIW R26 , 3
000412 93ec     +ST X , R30
                 	__PUTB1SNS 34,3
                 ; 0001 00A7 
                 ; 0001 00A8     state[4] = b[4] ^ a[7] ^ a[6] ^ b[5] ^ a[5];
000413 8de9      	LDD  R30,Y+25
000414 81ae      	LDD  R26,Y+6
000415 27ea      	EOR  R30,R26
000416 8da8      	LDD  R26,Y+24
000417 27ea      	EOR  R30,R26
000418 81af      	LDD  R26,Y+7
000419 27ea      	EOR  R30,R26
00041a 89af      	LDD  R26,Y+23
00041b 27ea      	EOR  R30,R26
                +
00041c a1aa     +LDD R26 , Y + 34
00041d a1bb     +LDD R27 , Y + 34 + 1
00041e 9614     +ADIW R26 , 4
00041f 93ec     +ST X , R30
                 	__PUTB1SNS 34,4
                 ; 0001 00A9     state[5] = b[5] ^ a[4] ^ a[7] ^ b[6] ^ a[6];
000420 89ee      	LDD  R30,Y+22
000421 81af      	LDD  R26,Y+7
000422 27ea      	EOR  R30,R26
000423 8da9      	LDD  R26,Y+25
000424 27ea      	EOR  R30,R26
000425 85a8      	LDD  R26,Y+8
000426 27ea      	EOR  R30,R26
000427 8da8      	LDD  R26,Y+24
000428 27ea      	EOR  R30,R26
                +
000429 a1aa     +LDD R26 , Y + 34
00042a a1bb     +LDD R27 , Y + 34 + 1
00042b 9615     +ADIW R26 , 5
00042c 93ec     +ST X , R30
                 	__PUTB1SNS 34,5
                 ; 0001 00AA     state[6] = b[6] ^ a[5] ^ a[4] ^ b[7] ^ a[7];
00042d 89ef      	LDD  R30,Y+23
00042e 85a8      	LDD  R26,Y+8
00042f 27ea      	EOR  R30,R26
000430 89ae      	LDD  R26,Y+22
000431 27ea      	EOR  R30,R26
000432 85a9      	LDD  R26,Y+9
000433 27ea      	EOR  R30,R26
000434 8da9      	LDD  R26,Y+25
000435 27ea      	EOR  R30,R26
                +
000436 a1aa     +LDD R26 , Y + 34
000437 a1bb     +LDD R27 , Y + 34 + 1
000438 9616     +ADIW R26 , 6
000439 93ec     +ST X , R30
                 	__PUTB1SNS 34,6
                 ; 0001 00AB     state[7] = b[7] ^ a[6] ^ a[5] ^ b[4] ^ a[4];
00043a 8de8      	LDD  R30,Y+24
00043b 85a9      	LDD  R26,Y+9
00043c 27ea      	EOR  R30,R26
00043d 89af      	LDD  R26,Y+23
00043e 27ea      	EOR  R30,R26
00043f 81ae      	LDD  R26,Y+6
000440 27ea      	EOR  R30,R26
000441 89ae      	LDD  R26,Y+22
000442 27ea      	EOR  R30,R26
                +
000443 a1aa     +LDD R26 , Y + 34
000444 a1bb     +LDD R27 , Y + 34 + 1
000445 9617     +ADIW R26 , 7
000446 93ec     +ST X , R30
                 	__PUTB1SNS 34,7
                 ; 0001 00AC 
                 ; 0001 00AD     state[8] = b[8] ^ a[11] ^ a[10] ^ b[9] ^ a[9];
000447 8ded      	LDD  R30,Y+29
000448 85aa      	LDD  R26,Y+10
000449 27ea      	EOR  R30,R26
00044a 8dac      	LDD  R26,Y+28
00044b 27ea      	EOR  R30,R26
00044c 85ab      	LDD  R26,Y+11
00044d 27ea      	EOR  R30,R26
00044e 8dab      	LDD  R26,Y+27
00044f 27ea      	EOR  R30,R26
                +
000450 a1aa     +LDD R26 , Y + 34
000451 a1bb     +LDD R27 , Y + 34 + 1
000452 9618     +ADIW R26 , 8
000453 93ec     +ST X , R30
                 	__PUTB1SNS 34,8
                 ; 0001 00AE     state[9] = b[9] ^ a[8] ^ a[11] ^ b[10] ^ a[10];
000454 8dea      	LDD  R30,Y+26
000455 85ab      	LDD  R26,Y+11
000456 27ea      	EOR  R30,R26
000457 8dad      	LDD  R26,Y+29
000458 27ea      	EOR  R30,R26
000459 85ac      	LDD  R26,Y+12
00045a 27ea      	EOR  R30,R26
00045b 8dac      	LDD  R26,Y+28
00045c 27ea      	EOR  R30,R26
                +
00045d a1aa     +LDD R26 , Y + 34
00045e a1bb     +LDD R27 , Y + 34 + 1
00045f 9619     +ADIW R26 , 9
000460 93ec     +ST X , R30
                 	__PUTB1SNS 34,9
                 ; 0001 00AF     state[10] = b[10] ^ a[9] ^ a[8] ^ b[11] ^ a[11];
000461 8deb      	LDD  R30,Y+27
000462 85ac      	LDD  R26,Y+12
000463 27ea      	EOR  R30,R26
000464 8daa      	LDD  R26,Y+26
000465 27ea      	EOR  R30,R26
000466 85ad      	LDD  R26,Y+13
000467 27ea      	EOR  R30,R26
000468 8dad      	LDD  R26,Y+29
000469 27ea      	EOR  R30,R26
                +
00046a a1aa     +LDD R26 , Y + 34
00046b a1bb     +LDD R27 , Y + 34 + 1
00046c 961a     +ADIW R26 , 10
00046d 93ec     +ST X , R30
                 	__PUTB1SNS 34,10
                 ; 0001 00B0     state[11] = b[11] ^ a[10] ^ a[9] ^ b[8] ^ a[8];
00046e 8dec      	LDD  R30,Y+28
00046f 85ad      	LDD  R26,Y+13
000470 27ea      	EOR  R30,R26
000471 8dab      	LDD  R26,Y+27
000472 27ea      	EOR  R30,R26
000473 85aa      	LDD  R26,Y+10
000474 27ea      	EOR  R30,R26
000475 8daa      	LDD  R26,Y+26
000476 27ea      	EOR  R30,R26
                +
000477 a1aa     +LDD R26 , Y + 34
000478 a1bb     +LDD R27 , Y + 34 + 1
000479 961b     +ADIW R26 , 11
00047a 93ec     +ST X , R30
                 	__PUTB1SNS 34,11
                 ; 0001 00B1 
                 ; 0001 00B2     state[12] = b[12] ^ a[15] ^ a[14] ^ b[13] ^ a[13];
00047b a1e9      	LDD  R30,Y+33
00047c 85ae      	LDD  R26,Y+14
00047d 27ea      	EOR  R30,R26
00047e a1a8      	LDD  R26,Y+32
00047f 27ea      	EOR  R30,R26
000480 85af      	LDD  R26,Y+15
000481 27ea      	EOR  R30,R26
000482 8daf      	LDD  R26,Y+31
000483 27ea      	EOR  R30,R26
                +
000484 a1aa     +LDD R26 , Y + 34
000485 a1bb     +LDD R27 , Y + 34 + 1
000486 961c     +ADIW R26 , 12
000487 93ec     +ST X , R30
                 	__PUTB1SNS 34,12
                 ; 0001 00B3     state[13] = b[13] ^ a[12] ^ a[15] ^ b[14] ^ a[14];
000488 8dee      	LDD  R30,Y+30
000489 85af      	LDD  R26,Y+15
00048a 27ea      	EOR  R30,R26
00048b a1a9      	LDD  R26,Y+33
00048c 27ea      	EOR  R30,R26
00048d 89a8      	LDD  R26,Y+16
00048e 27ea      	EOR  R30,R26
00048f a1a8      	LDD  R26,Y+32
000490 27ea      	EOR  R30,R26
                +
000491 a1aa     +LDD R26 , Y + 34
000492 a1bb     +LDD R27 , Y + 34 + 1
000493 961d     +ADIW R26 , 13
000494 93ec     +ST X , R30
                 	__PUTB1SNS 34,13
                 ; 0001 00B4     state[14] = b[14] ^ a[13] ^ a[12] ^ b[15] ^ a[15];
000495 8def      	LDD  R30,Y+31
000496 89a8      	LDD  R26,Y+16
000497 27ea      	EOR  R30,R26
000498 8dae      	LDD  R26,Y+30
000499 27ea      	EOR  R30,R26
00049a 89a9      	LDD  R26,Y+17
00049b 27ea      	EOR  R30,R26
00049c a1a9      	LDD  R26,Y+33
00049d 27ea      	EOR  R30,R26
                +
00049e a1aa     +LDD R26 , Y + 34
00049f a1bb     +LDD R27 , Y + 34 + 1
0004a0 961e     +ADIW R26 , 14
0004a1 93ec     +ST X , R30
                 	__PUTB1SNS 34,14
                 ; 0001 00B5     state[15] = b[15] ^ a[14] ^ a[13] ^ b[12] ^ a[12];
0004a2 a1e8      	LDD  R30,Y+32
0004a3 89a9      	LDD  R26,Y+17
0004a4 27ea      	EOR  R30,R26
0004a5 8daf      	LDD  R26,Y+31
0004a6 27ea      	EOR  R30,R26
0004a7 85ae      	LDD  R26,Y+14
0004a8 27ea      	EOR  R30,R26
0004a9 8dae      	LDD  R26,Y+30
0004aa 27ea      	EOR  R30,R26
                +
0004ab a1aa     +LDD R26 , Y + 34
0004ac a1bb     +LDD R27 , Y + 34 + 1
0004ad 961f     +ADIW R26 , 15
0004ae 93ec     +ST X , R30
                 	__PUTB1SNS 34,15
                 ; 0001 00B6 
                 ; 0001 00B7 }
0004af 8119      	LDD  R17,Y+1
0004b0 8108      	LDD  R16,Y+0
0004b1 96a4      	ADIW R28,36
0004b2 9508      	RET
                 ; .FEND
                 ;
                 ;void ShiftRows(unsigned char *state)
                 ; 0001 00BA {
                 _ShiftRows:
                 ; .FSTART _ShiftRows
                 ; 0001 00BB     unsigned char tmp[16],i;
                 ; 0001 00BC 
                 ; 0001 00BD     for (i=0;i<16;i++)
0004b3 93ba      	ST   -Y,R27
0004b4 93aa      	ST   -Y,R26
0004b5 9760      	SBIW R28,16
0004b6 931a      	ST   -Y,R17
                 ;	*state -> Y+17
                 ;	tmp -> Y+1
                 ;	i -> R17
0004b7 e010      	LDI  R17,LOW(0)
                 _0x20028:
0004b8 3110      	CPI  R17,16
0004b9 f468      	BRSH _0x20029
                 ; 0001 00BE         tmp[i]=state[i];
0004ba 940e 075b 	CALL SUBOPT_0x13
0004bc 0fea      	ADD  R30,R26
0004bd 1ffb      	ADC  R31,R27
0004be 010f      	MOVW R0,R30
0004bf 89a9      	LDD  R26,Y+17
0004c0 89ba      	LDD  R27,Y+17+1
0004c1 940e 071d 	CALL SUBOPT_0xE
0004c3 01d0      	MOVW R26,R0
0004c4 93ec      	ST   X,R30
0004c5 5f1f      	SUBI R17,-1
0004c6 cff1      	RJMP _0x20028
                 _0x20029:
                 ; 0001 00C0 state[0]=tmp[0];
0004c7 81e9      	LDD  R30,Y+1
0004c8 89a9      	LDD  R26,Y+17
0004c9 89ba      	LDD  R27,Y+17+1
0004ca 93ec      	ST   X,R30
                 ; 0001 00C1     state[1]=tmp[5];
0004cb 81ee      	LDD  R30,Y+6
                +
0004cc 89a9     +LDD R26 , Y + 17
0004cd 89ba     +LDD R27 , Y + 17 + 1
0004ce 9611     +ADIW R26 , 1
0004cf 93ec     +ST X , R30
                 	__PUTB1SNS 17,1
                 ; 0001 00C2     state[2]=tmp[10];
0004d0 85eb      	LDD  R30,Y+11
                +
0004d1 89a9     +LDD R26 , Y + 17
0004d2 89ba     +LDD R27 , Y + 17 + 1
0004d3 9612     +ADIW R26 , 2
0004d4 93ec     +ST X , R30
                 	__PUTB1SNS 17,2
                 ; 0001 00C3     state[3]=tmp[15];
0004d5 89e8      	LDD  R30,Y+16
                +
0004d6 89a9     +LDD R26 , Y + 17
0004d7 89ba     +LDD R27 , Y + 17 + 1
0004d8 9613     +ADIW R26 , 3
0004d9 93ec     +ST X , R30
                 	__PUTB1SNS 17,3
                 ; 0001 00C4 
                 ; 0001 00C5     state[4]=tmp[4];
0004da 81ed      	LDD  R30,Y+5
                +
0004db 89a9     +LDD R26 , Y + 17
0004dc 89ba     +LDD R27 , Y + 17 + 1
0004dd 9614     +ADIW R26 , 4
0004de 93ec     +ST X , R30
                 	__PUTB1SNS 17,4
                 ; 0001 00C6     state[5]=tmp[9];
0004df 85ea      	LDD  R30,Y+10
                +
0004e0 89a9     +LDD R26 , Y + 17
0004e1 89ba     +LDD R27 , Y + 17 + 1
0004e2 9615     +ADIW R26 , 5
0004e3 93ec     +ST X , R30
                 	__PUTB1SNS 17,5
                 ; 0001 00C7     state[6]=tmp[14];
0004e4 85ef      	LDD  R30,Y+15
                +
0004e5 89a9     +LDD R26 , Y + 17
0004e6 89ba     +LDD R27 , Y + 17 + 1
0004e7 9616     +ADIW R26 , 6
0004e8 93ec     +ST X , R30
                 	__PUTB1SNS 17,6
                 ; 0001 00C8     state[7]=tmp[3];
0004e9 81ec      	LDD  R30,Y+4
                +
0004ea 89a9     +LDD R26 , Y + 17
0004eb 89ba     +LDD R27 , Y + 17 + 1
0004ec 9617     +ADIW R26 , 7
0004ed 93ec     +ST X , R30
                 	__PUTB1SNS 17,7
                 ; 0001 00C9 
                 ; 0001 00CA     state[8]=tmp[8];
0004ee 85e9      	LDD  R30,Y+9
                +
0004ef 89a9     +LDD R26 , Y + 17
0004f0 89ba     +LDD R27 , Y + 17 + 1
0004f1 9618     +ADIW R26 , 8
0004f2 93ec     +ST X , R30
                 	__PUTB1SNS 17,8
                 ; 0001 00CB     state[9]=tmp[13];
0004f3 85ee      	LDD  R30,Y+14
                +
0004f4 89a9     +LDD R26 , Y + 17
0004f5 89ba     +LDD R27 , Y + 17 + 1
0004f6 9619     +ADIW R26 , 9
0004f7 93ec     +ST X , R30
                 	__PUTB1SNS 17,9
                 ; 0001 00CC     state[10]=tmp[2];
0004f8 81eb      	LDD  R30,Y+3
                +
0004f9 89a9     +LDD R26 , Y + 17
0004fa 89ba     +LDD R27 , Y + 17 + 1
0004fb 961a     +ADIW R26 , 10
0004fc 93ec     +ST X , R30
                 	__PUTB1SNS 17,10
                 ; 0001 00CD     state[11]=tmp[7];
0004fd 85e8      	LDD  R30,Y+8
                +
0004fe 89a9     +LDD R26 , Y + 17
0004ff 89ba     +LDD R27 , Y + 17 + 1
000500 961b     +ADIW R26 , 11
000501 93ec     +ST X , R30
                 	__PUTB1SNS 17,11
                 ; 0001 00CE 
                 ; 0001 00CF     state[12]=tmp[12];
000502 85ed      	LDD  R30,Y+13
                +
000503 89a9     +LDD R26 , Y + 17
000504 89ba     +LDD R27 , Y + 17 + 1
000505 961c     +ADIW R26 , 12
000506 93ec     +ST X , R30
                 	__PUTB1SNS 17,12
                 ; 0001 00D0     state[13]=tmp[1];
000507 81ea      	LDD  R30,Y+2
                +
000508 89a9     +LDD R26 , Y + 17
000509 89ba     +LDD R27 , Y + 17 + 1
00050a 961d     +ADIW R26 , 13
00050b 93ec     +ST X , R30
                 	__PUTB1SNS 17,13
                 ; 0001 00D1     state[14]=tmp[6];
00050c 81ef      	LDD  R30,Y+7
                +
00050d 89a9     +LDD R26 , Y + 17
00050e 89ba     +LDD R27 , Y + 17 + 1
00050f 961e     +ADIW R26 , 14
000510 93ec     +ST X , R30
                 	__PUTB1SNS 17,14
                 ; 0001 00D2     state[15]=tmp[11];
000511 85ec      	LDD  R30,Y+12
                +
000512 89a9     +LDD R26 , Y + 17
000513 89ba     +LDD R27 , Y + 17 + 1
000514 961f     +ADIW R26 , 15
000515 93ec     +ST X , R30
                 	__PUTB1SNS 17,15
                 ; 0001 00D3 }
000516 8118      	LDD  R17,Y+0
000517 9663      	ADIW R28,19
000518 9508      	RET
                 ; .FEND
                 ;// End function Encrypt
                 ;
                 ;//Begin function Decrypt
                 ;//void Decrypt(unsigned char *in,unsigned char *key,unsigned char *out)
                 ;//{
                 ;//    unsigned char expkey[176],i,state[16];
                 ;//
                 ;//    for(i=0;i<16;i++)
                 ;//        state[i]=in[i];
                 ;//
                 ;//    Expankey(key,expkey);
                 ;//    AddRoundKey(state,expkey,176);
                 ;//    InvShiftRows(state);
                 ;//    InvSubBytes(state);
                 ;//    for (i=10;i>1;i--)
                 ;//    {
                 ;//        AddRoundKey(state,expkey,i*16);
                 ;//        InvMixColumns(state);
                 ;//        InvShiftRows(state);
                 ;//        InvSubBytes(state);
                 ;//    }
                 ;//    AddRoundKey(state,key,16);
                 ;//    for (i=0;i<16;i++)
                 ;//        out[i] = state[i];
                 ;//
                 ;//}
                 ;//
                 ;//void InvShiftRows(unsigned char *state)
                 ;//{
                 ;//    unsigned char tmp[16],i;
                 ;//    for (i=0;i<16;i++)
                 ;//        tmp[i] = state[i];
                 ;//
                 ;//    state[0] = tmp[0];
                 ;//    state[1] = tmp[13];
                 ;//    state[2] = tmp[10];
                 ;//    state[3] = tmp[7];
                 ;//
                 ;//    state[4] = tmp[4];
                 ;//    state[5] = tmp[1];
                 ;//    state[6] = tmp[14];
                 ;//    state[7] = tmp[11];
                 ;//
                 ;//    state[8] = tmp[8];
                 ;//    state[9] = tmp[5];
                 ;//    state[10] = tmp[2];
                 ;//    state[11] = tmp[15];
                 ;//
                 ;//    state[12] = tmp[12];
                 ;//    state[13] = tmp[9];
                 ;//    state[14] = tmp[6];
                 ;//    state[15] = tmp[3];
                 ;//}
                 ;//
                 ;//void InvSubBytes(unsigned char *state)
                 ;//{
                 ;//    unsigned char i;
                 ;//    for (i=0;i<16;i++)
                 ;//        state[i] = inv_sbox[state[i]];
                 ;//}
                 ;//
                 ;//
                 ;//void InvMixColumns(unsigned char *state)
                 ;//{
                 ;//    unsigned char tmp[16],i;
                 ;//    for (i=0;i<16;i++)
                 ;//        tmp[i] = state[i];
                 ;//
                 ;//    state[0] = gmul(0x09,tmp[3]) ^ gmul(0x0b,tmp[1]) ^ gmul(0x0d,tmp[2]) ^ gmul(0x0e,tmp[0]);
                 ;//    state[1] = gmul(0x09,tmp[0]) ^ gmul(0x0b,tmp[2]) ^ gmul(0x0d,tmp[3]) ^ gmul(0x0e,tmp[1]);
                 ;//    state[2] = gmul(0x09,tmp[1]) ^ gmul(0x0b,tmp[3]) ^ gmul(0x0d,tmp[0]) ^ gmul(0x0e,tmp[2]);
                 ;//    state[3] = gmul(0x09,tmp[2]) ^ gmul(0x0b,tmp[0]) ^ gmul(0x0d,tmp[1]) ^ gmul(0x0e,tmp[3]);
                 ;//
                 ;//    state[4] = gmul(0x09,tmp[7]) ^ gmul(0x0b,tmp[5]) ^ gmul(0x0d,tmp[6]) ^ gmul(0x0e,tmp[4]);
                 ;//    state[5] = gmul(0x09,tmp[4]) ^ gmul(0x0b,tmp[6]) ^ gmul(0x0d,tmp[7]) ^ gmul(0x0e,tmp[5]);
                 ;//    state[6] = gmul(0x09,tmp[5]) ^ gmul(0x0b,tmp[7]) ^ gmul(0x0d,tmp[4]) ^ gmul(0x0e,tmp[6]);
                 ;//    state[7] = gmul(0x09,tmp[6]) ^ gmul(0x0b,tmp[4]) ^ gmul(0x0d,tmp[5]) ^ gmul(0x0e,tmp[7]);
                 ;//
                 ;//    state[8] = gmul(0x09,tmp[11]) ^ gmul(0x0b,tmp[9]) ^ gmul(0x0d,tmp[10]) ^ gmul(0x0e,tmp[8]);
                 ;//    state[9] = gmul(0x09,tmp[8]) ^ gmul(0x0b,tmp[10]) ^ gmul(0x0d,tmp[11]) ^ gmul(0x0e,tmp[9]);
                 ;//    state[10] = gmul(0x09,tmp[9]) ^ gmul(0x0b,tmp[11]) ^ gmul(0x0d,tmp[8]) ^ gmul(0x0e,tmp[10]);
                 ;//    state[11] = gmul(0x09,tmp[10]) ^ gmul(0x0b,tmp[8]) ^ gmul(0x0d,tmp[9]) ^ gmul(0x0e,tmp[11]);
                 ;//
                 ;//    state[12] = gmul(0x09,tmp[15]) ^ gmul(0x0b,tmp[13]) ^ gmul(0x0d,tmp[14]) ^ gmul(0x0e,tmp[12]);
                 ;//    state[13] = gmul(0x09,tmp[12]) ^ gmul(0x0b,tmp[14]) ^ gmul(0x0d,tmp[15]) ^ gmul(0x0e,tmp[13]);
                 ;//    state[14] = gmul(0x09,tmp[13]) ^ gmul(0x0b,tmp[15]) ^ gmul(0x0d,tmp[12]) ^ gmul(0x0e,tmp[14]);
                 ;//    state[15] = gmul(0x09,tmp[14]) ^ gmul(0x0b,tmp[12]) ^ gmul(0x0d,tmp[13]) ^ gmul(0x0e,tmp[15]);
                 ;//
                 ;//}
                 ;// End function Decrypt
                 	#ifndef __SLEEP_DEFINED__
                 	#endif
                 
                 	.CSEG
                 _putchar:
                 ; .FSTART _putchar
000519 93aa      	ST   -Y,R26
                 _0x2000003:
00051a 91e0 00c0 	LDS  R30,192
00051c 72e0      	ANDI R30,LOW(0x20)
00051d f3e1      	BREQ _0x2000003
00051e 81e8      	LD   R30,Y
00051f 93e0 00c6 	STS  198,R30
000521 9621      	ADIW R28,1
000522 9508      	RET
                 ; .FEND
                 _put_usart_G100:
                 ; .FSTART _put_usart_G100
000523 93ba      	ST   -Y,R27
000524 93aa      	ST   -Y,R26
000525 81aa      	LDD  R26,Y+2
000526 dff2      	RCALL _putchar
000527 81a8      	LD   R26,Y
000528 81b9      	LDD  R27,Y+1
000529 91ed      	LD   R30,X+
00052a 91fd      	LD   R31,X+
00052b 9631      	ADIW R30,1
00052c 93fe      	ST   -X,R31
00052d 93ee      	ST   -X,R30
                 _0x2060001:
00052e 9623      	ADIW R28,3
00052f 9508      	RET
                 ; .FEND
                 __print_G100:
                 ; .FSTART __print_G100
000530 93ba      	ST   -Y,R27
000531 93aa      	ST   -Y,R26
000532 9726      	SBIW R28,6
000533 940e 07ec 	CALL __SAVELOCR6
000535 e010      	LDI  R17,0
000536 85ac      	LDD  R26,Y+12
000537 85bd      	LDD  R27,Y+12+1
000538 e0e0      	LDI  R30,LOW(0)
000539 e0f0      	LDI  R31,HIGH(0)
00053a 93ed      	ST   X+,R30
00053b 93fc      	ST   X,R31
                 _0x2000019:
00053c 89ea      	LDD  R30,Y+18
00053d 89fb      	LDD  R31,Y+18+1
00053e 9631      	ADIW R30,1
00053f 8bea      	STD  Y+18,R30
000540 8bfb      	STD  Y+18+1,R31
000541 9731      	SBIW R30,1
000542 91e4      	LPM  R30,Z
000543 2f2e      	MOV  R18,R30
000544 30e0      	CPI  R30,0
000545 f409      	BRNE PC+2
000546 c115      	RJMP _0x200001B
000547 2fe1      	MOV  R30,R17
000548 30e0      	CPI  R30,0
000549 f439      	BRNE _0x200001F
00054a 3225      	CPI  R18,37
00054b f411      	BRNE _0x2000020
00054c e011      	LDI  R17,LOW(1)
00054d c002      	RJMP _0x2000021
                 _0x2000020:
00054e 940e 0778 	CALL SUBOPT_0x17
                 _0x2000021:
000550 c10a      	RJMP _0x200001E
                 _0x200001F:
000551 30e1      	CPI  R30,LOW(0x1)
000552 f4a9      	BRNE _0x2000022
000553 3225      	CPI  R18,37
000554 f419      	BRNE _0x2000023
000555 940e 0778 	CALL SUBOPT_0x17
000557 c102      	RJMP _0x20000CF
                 _0x2000023:
000558 e012      	LDI  R17,LOW(2)
000559 e040      	LDI  R20,LOW(0)
00055a e000      	LDI  R16,LOW(0)
00055b 322d      	CPI  R18,45
00055c f411      	BRNE _0x2000024
00055d e001      	LDI  R16,LOW(1)
00055e c0fc      	RJMP _0x200001E
                 _0x2000024:
00055f 322b      	CPI  R18,43
000560 f411      	BRNE _0x2000025
000561 e24b      	LDI  R20,LOW(43)
000562 c0f8      	RJMP _0x200001E
                 _0x2000025:
000563 3220      	CPI  R18,32
000564 f411      	BRNE _0x2000026
000565 e240      	LDI  R20,LOW(32)
000566 c0f4      	RJMP _0x200001E
                 _0x2000026:
000567 c002      	RJMP _0x2000027
                 _0x2000022:
000568 30e2      	CPI  R30,LOW(0x2)
000569 f439      	BRNE _0x2000028
                 _0x2000027:
00056a e050      	LDI  R21,LOW(0)
00056b e013      	LDI  R17,LOW(3)
00056c 3320      	CPI  R18,48
00056d f411      	BRNE _0x2000029
00056e 6800      	ORI  R16,LOW(128)
00056f c0eb      	RJMP _0x200001E
                 _0x2000029:
000570 c003      	RJMP _0x200002A
                 _0x2000028:
000571 30e3      	CPI  R30,LOW(0x3)
000572 f009      	BREQ PC+2
000573 c0e7      	RJMP _0x200001E
                 _0x200002A:
000574 3320      	CPI  R18,48
000575 f010      	BRLO _0x200002D
000576 332a      	CPI  R18,58
000577 f008      	BRLO _0x200002E
                 _0x200002D:
000578 c007      	RJMP _0x200002C
                 _0x200002E:
000579 e0aa      	LDI  R26,LOW(10)
00057a 9f5a      	MUL  R21,R26
00057b 2d50      	MOV  R21,R0
00057c 2fe2      	MOV  R30,R18
00057d 53e0      	SUBI R30,LOW(48)
00057e 0f5e      	ADD  R21,R30
00057f c0db      	RJMP _0x200001E
                 _0x200002C:
000580 2fe2      	MOV  R30,R18
000581 36e3      	CPI  R30,LOW(0x63)
000582 f449      	BRNE _0x2000032
000583 940e 077f 	CALL SUBOPT_0x18
000585 89e8      	LDD  R30,Y+16
000586 89f9      	LDD  R31,Y+16+1
000587 81a4      	LDD  R26,Z+4
000588 93aa      	ST   -Y,R26
000589 940e 0785 	CALL SUBOPT_0x19
00058b c0ce      	RJMP _0x2000033
                 _0x2000032:
00058c 37e3      	CPI  R30,LOW(0x73)
00058d f441      	BRNE _0x2000035
00058e 940e 077f 	CALL SUBOPT_0x18
000590 940e 078b 	CALL SUBOPT_0x1A
000592 940e 0689 	CALL _strlen
000594 2f1e      	MOV  R17,R30
000595 c00a      	RJMP _0x2000036
                 _0x2000035:
000596 37e0      	CPI  R30,LOW(0x70)
000597 f461      	BRNE _0x2000038
000598 940e 077f 	CALL SUBOPT_0x18
00059a 940e 078b 	CALL SUBOPT_0x1A
00059c 940e 0695 	CALL _strlenf
00059e 2f1e      	MOV  R17,R30
00059f 6008      	ORI  R16,LOW(8)
                 _0x2000036:
0005a0 6002      	ORI  R16,LOW(2)
0005a1 770f      	ANDI R16,LOW(127)
0005a2 e030      	LDI  R19,LOW(0)
0005a3 c034      	RJMP _0x2000039
                 _0x2000038:
0005a4 36e4      	CPI  R30,LOW(0x64)
0005a5 f011      	BREQ _0x200003C
0005a6 36e9      	CPI  R30,LOW(0x69)
0005a7 f411      	BRNE _0x200003D
                 _0x200003C:
0005a8 6004      	ORI  R16,LOW(4)
0005a9 c002      	RJMP _0x200003E
                 _0x200003D:
0005aa 37e5      	CPI  R30,LOW(0x75)
0005ab f431      	BRNE _0x200003F
                 _0x200003E:
0005ac e6e8      	LDI  R30,LOW(_tbl10_G100*2)
0005ad e0f1      	LDI  R31,HIGH(_tbl10_G100*2)
0005ae 83ee      	STD  Y+6,R30
0005af 83ff      	STD  Y+6+1,R31
0005b0 e015      	LDI  R17,LOW(5)
0005b1 c00c      	RJMP _0x2000040
                 _0x200003F:
0005b2 35e8      	CPI  R30,LOW(0x58)
0005b3 f411      	BRNE _0x2000042
0005b4 6008      	ORI  R16,LOW(8)
0005b5 c003      	RJMP _0x2000043
                 _0x2000042:
0005b6 37e8      	CPI  R30,LOW(0x78)
0005b7 f009      	BREQ PC+2
0005b8 c0a1      	RJMP _0x2000074
                 _0x2000043:
0005b9 e7e2      	LDI  R30,LOW(_tbl16_G100*2)
0005ba e0f1      	LDI  R31,HIGH(_tbl16_G100*2)
0005bb 83ee      	STD  Y+6,R30
0005bc 83ff      	STD  Y+6+1,R31
0005bd e014      	LDI  R17,LOW(4)
                 _0x2000040:
0005be ff02      	SBRS R16,2
0005bf c014      	RJMP _0x2000045
0005c0 940e 077f 	CALL SUBOPT_0x18
0005c2 940e 0795 	CALL SUBOPT_0x1B
0005c4 85ab      	LDD  R26,Y+11
0005c5 23aa      	TST  R26
0005c6 f43a      	BRPL _0x2000046
0005c7 85ea      	LDD  R30,Y+10
0005c8 85fb      	LDD  R31,Y+10+1
0005c9 940e 07ab 	CALL __ANEGW1
0005cb 87ea      	STD  Y+10,R30
0005cc 87fb      	STD  Y+10+1,R31
0005cd e24d      	LDI  R20,LOW(45)
                 _0x2000046:
0005ce 3040      	CPI  R20,0
0005cf f011      	BREQ _0x2000047
0005d0 5f1f      	SUBI R17,-LOW(1)
0005d1 c001      	RJMP _0x2000048
                 _0x2000047:
0005d2 7f0b      	ANDI R16,LOW(251)
                 _0x2000048:
0005d3 c004      	RJMP _0x2000049
                 _0x2000045:
0005d4 940e 077f 	CALL SUBOPT_0x18
0005d6 940e 0795 	CALL SUBOPT_0x1B
                 _0x2000049:
                 _0x2000039:
0005d8 fd00      	SBRC R16,0
0005d9 c011      	RJMP _0x200004A
                 _0x200004B:
0005da 1715      	CP   R17,R21
0005db f478      	BRSH _0x200004D
0005dc ff07      	SBRS R16,7
0005dd c008      	RJMP _0x200004E
0005de ff02      	SBRS R16,2
0005df c004      	RJMP _0x200004F
0005e0 7f0b      	ANDI R16,LOW(251)
0005e1 2f24      	MOV  R18,R20
0005e2 5011      	SUBI R17,LOW(1)
0005e3 c001      	RJMP _0x2000050
                 _0x200004F:
0005e4 e320      	LDI  R18,LOW(48)
                 _0x2000050:
0005e5 c001      	RJMP _0x2000051
                 _0x200004E:
0005e6 e220      	LDI  R18,LOW(32)
                 _0x2000051:
0005e7 940e 0778 	CALL SUBOPT_0x17
0005e9 5051      	SUBI R21,LOW(1)
0005ea cfef      	RJMP _0x200004B
                 _0x200004D:
                 _0x200004A:
0005eb 2f31      	MOV  R19,R17
0005ec ff01      	SBRS R16,1
0005ed c017      	RJMP _0x2000052
                 _0x2000053:
0005ee 3030      	CPI  R19,0
0005ef f0a1      	BREQ _0x2000055
0005f0 ff03      	SBRS R16,3
0005f1 c006      	RJMP _0x2000056
0005f2 81ee      	LDD  R30,Y+6
0005f3 81ff      	LDD  R31,Y+6+1
0005f4 9125      	LPM  R18,Z+
0005f5 83ee      	STD  Y+6,R30
0005f6 83ff      	STD  Y+6+1,R31
0005f7 c005      	RJMP _0x2000057
                 _0x2000056:
0005f8 81ae      	LDD  R26,Y+6
0005f9 81bf      	LDD  R27,Y+6+1
0005fa 912d      	LD   R18,X+
0005fb 83ae      	STD  Y+6,R26
0005fc 83bf      	STD  Y+6+1,R27
                 _0x2000057:
0005fd 940e 0778 	CALL SUBOPT_0x17
0005ff 3050      	CPI  R21,0
000600 f009      	BREQ _0x2000058
000601 5051      	SUBI R21,LOW(1)
                 _0x2000058:
000602 5031      	SUBI R19,LOW(1)
000603 cfea      	RJMP _0x2000053
                 _0x2000055:
000604 c04b      	RJMP _0x2000059
                 _0x2000052:
                 _0x200005B:
000605 e320      	LDI  R18,LOW(48)
000606 81ee      	LDD  R30,Y+6
000607 81ff      	LDD  R31,Y+6+1
000608 940e 07dc 	CALL __GETW1PF
00060a 87e8      	STD  Y+8,R30
00060b 87f9      	STD  Y+8+1,R31
00060c 81ee      	LDD  R30,Y+6
00060d 81ff      	LDD  R31,Y+6+1
00060e 9632      	ADIW R30,2
00060f 83ee      	STD  Y+6,R30
000610 83ff      	STD  Y+6+1,R31
                 _0x200005D:
000611 85e8      	LDD  R30,Y+8
000612 85f9      	LDD  R31,Y+8+1
000613 85aa      	LDD  R26,Y+10
000614 85bb      	LDD  R27,Y+10+1
000615 17ae      	CP   R26,R30
000616 07bf      	CPC  R27,R31
000617 f050      	BRLO _0x200005F
000618 5f2f      	SUBI R18,-LOW(1)
000619 85a8      	LDD  R26,Y+8
00061a 85b9      	LDD  R27,Y+8+1
00061b 85ea      	LDD  R30,Y+10
00061c 85fb      	LDD  R31,Y+10+1
00061d 1bea      	SUB  R30,R26
00061e 0bfb      	SBC  R31,R27
00061f 87ea      	STD  Y+10,R30
000620 87fb      	STD  Y+10+1,R31
000621 cfef      	RJMP _0x200005D
                 _0x200005F:
000622 332a      	CPI  R18,58
000623 f028      	BRLO _0x2000060
000624 ff03      	SBRS R16,3
000625 c002      	RJMP _0x2000061
000626 5f29      	SUBI R18,-LOW(7)
000627 c001      	RJMP _0x2000062
                 _0x2000061:
000628 5d29      	SUBI R18,-LOW(39)
                 _0x2000062:
                 _0x2000060:
000629 fd04      	SBRC R16,4
00062a c01a      	RJMP _0x2000064
00062b 3321      	CPI  R18,49
00062c f420      	BRSH _0x2000066
00062d 85a8      	LDD  R26,Y+8
00062e 85b9      	LDD  R27,Y+8+1
00062f 9711      	SBIW R26,1
000630 f409      	BRNE _0x2000065
                 _0x2000066:
000631 c009      	RJMP _0x20000D0
                 _0x2000065:
000632 1753      	CP   R21,R19
000633 f010      	BRLO _0x200006A
000634 ff00      	SBRS R16,0
000635 c001      	RJMP _0x200006B
                 _0x200006A:
000636 c013      	RJMP _0x2000069
                 _0x200006B:
000637 e220      	LDI  R18,LOW(32)
000638 ff07      	SBRS R16,7
000639 c00b      	RJMP _0x200006C
00063a e320      	LDI  R18,LOW(48)
                 _0x20000D0:
00063b 6100      	ORI  R16,LOW(16)
00063c ff02      	SBRS R16,2
00063d c007      	RJMP _0x200006D
00063e 7f0b      	ANDI R16,LOW(251)
00063f 934a      	ST   -Y,R20
000640 940e 0785 	CALL SUBOPT_0x19
000642 3050      	CPI  R21,0
000643 f009      	BREQ _0x200006E
000644 5051      	SUBI R21,LOW(1)
                 _0x200006E:
                 _0x200006D:
                 _0x200006C:
                 _0x2000064:
000645 940e 0778 	CALL SUBOPT_0x17
000647 3050      	CPI  R21,0
000648 f009      	BREQ _0x200006F
000649 5051      	SUBI R21,LOW(1)
                 _0x200006F:
                 _0x2000069:
00064a 5031      	SUBI R19,LOW(1)
00064b 85a8      	LDD  R26,Y+8
00064c 85b9      	LDD  R27,Y+8+1
00064d 9712      	SBIW R26,2
00064e f008      	BRLO _0x200005C
00064f cfb5      	RJMP _0x200005B
                 _0x200005C:
                 _0x2000059:
000650 ff00      	SBRS R16,0
000651 c008      	RJMP _0x2000070
                 _0x2000071:
000652 3050      	CPI  R21,0
000653 f031      	BREQ _0x2000073
000654 5051      	SUBI R21,LOW(1)
000655 e2e0      	LDI  R30,LOW(32)
000656 93ea      	ST   -Y,R30
000657 940e 0785 	CALL SUBOPT_0x19
000659 cff8      	RJMP _0x2000071
                 _0x2000073:
                 _0x2000070:
                 _0x2000074:
                 _0x2000033:
                 _0x20000CF:
00065a e010      	LDI  R17,LOW(0)
                 _0x200001E:
00065b cee0      	RJMP _0x2000019
                 _0x200001B:
00065c 85ac      	LDD  R26,Y+12
00065d 85bd      	LDD  R27,Y+12+1
00065e 940e 07d8 	CALL __GETW1P
000660 940e 07f3 	CALL __LOADLOCR6
000662 9664      	ADIW R28,20
000663 9508      	RET
                 ; .FEND
                 _printf:
                 ; .FSTART _printf
000664 92ff      	PUSH R15
000665 2ef8      	MOV  R15,R24
000666 9726      	SBIW R28,6
000667 931a      	ST   -Y,R17
000668 930a      	ST   -Y,R16
000669 01de      	MOVW R26,R28
00066a 9614      	ADIW R26,4
00066b 940e 07a7 	CALL __ADDW2R15
00066d 018d      	MOVW R16,R26
00066e e0e0      	LDI  R30,LOW(0)
00066f 83ec      	STD  Y+4,R30
000670 83ed      	STD  Y+4+1,R30
000671 83ee      	STD  Y+6,R30
000672 83ef      	STD  Y+6+1,R30
000673 01de      	MOVW R26,R28
000674 9618      	ADIW R26,8
000675 940e 07a7 	CALL __ADDW2R15
000677 940e 07d8 	CALL __GETW1P
000679 93fa      	ST   -Y,R31
00067a 93ea      	ST   -Y,R30
00067b 931a      	ST   -Y,R17
00067c 930a      	ST   -Y,R16
00067d e2e3      	LDI  R30,LOW(_put_usart_G100)
00067e e0f5      	LDI  R31,HIGH(_put_usart_G100)
00067f 93fa      	ST   -Y,R31
000680 93ea      	ST   -Y,R30
000681 01de      	MOVW R26,R28
000682 9618      	ADIW R26,8
000683 deac      	RCALL __print_G100
000684 8119      	LDD  R17,Y+1
000685 8108      	LDD  R16,Y+0
000686 9628      	ADIW R28,8
000687 90ff      	POP  R15
000688 9508      	RET
                 ; .FEND
                 
                 	.CSEG
                 
                 	.CSEG
                 _strlen:
                 ; .FSTART _strlen
000689 93ba      	ST   -Y,R27
00068a 93aa      	ST   -Y,R26
00068b 91a9          ld   r26,y+
00068c 91b9          ld   r27,y+
00068d 27ee          clr  r30
00068e 27ff          clr  r31
                 strlen0:
00068f 916d          ld   r22,x+
000690 2366          tst  r22
000691 f011          breq strlen1
000692 9631          adiw r30,1
000693 cffb          rjmp strlen0
                 strlen1:
000694 9508          ret
                 ; .FEND
                 _strlenf:
                 ; .FSTART _strlenf
000695 93ba      	ST   -Y,R27
000696 93aa      	ST   -Y,R26
000697 27aa          clr  r26
000698 27bb          clr  r27
000699 91e9          ld   r30,y+
00069a 91f9          ld   r31,y+
                 strlenf0:
00069b 9005      	lpm  r0,z+
00069c 2000          tst  r0
00069d f011          breq strlenf1
00069e 9611          adiw r26,1
00069f cffb          rjmp strlenf0
                 strlenf1:
0006a0 01fd          movw r30,r26
0006a1 9508          ret
                 ; .FEND
                 
                 	.DSEG
                 _rx_buffer0:
000300           	.BYTE 0x2B
                 _rcon:
00032b           	.BYTE 0xA
                 
                 	.CSEG
                 ;OPTIMIZER ADDED SUBROUTINE, CALLED 2 TIMES, CODE SIZE REDUCTION:4 WORDS
                 SUBOPT_0x0:
0006a2 e0f0      	LDI  R31,0
0006a3 01de      	MOVW R26,R28
0006a4 9690      	ADIW R26,32
0006a5 0fae      	ADD  R26,R30
0006a6 1fbf      	ADC  R27,R31
0006a7 e0e0      	LDI  R30,LOW(0)
0006a8 93ec      	ST   X,R30
0006a9 2fe1      	MOV  R30,R17
0006aa e0f0      	LDI  R31,0
0006ab 9508      	RET
                 
                 ;OPTIMIZER ADDED SUBROUTINE, CALLED 2 TIMES, CODE SIZE REDUCTION:3 WORDS
                 SUBOPT_0x1:
0006ac 01de      	MOVW R26,R28
0006ad 9650      	ADIW R26,16
0006ae 0fae      	ADD  R26,R30
0006af 1fbf      	ADC  R27,R31
0006b0 e0e0      	LDI  R30,LOW(0)
0006b1 93ec      	ST   X,R30
0006b2 2fe1      	MOV  R30,R17
0006b3 e0f0      	LDI  R31,0
0006b4 9508      	RET
                 
                 ;OPTIMIZER ADDED SUBROUTINE, CALLED 7 TIMES, CODE SIZE REDUCTION:21 WORDS
                 SUBOPT_0x2:
0006b5 2fe1      	MOV  R30,R17
0006b6 e0f0      	LDI  R31,0
0006b7 01de      	MOVW R26,R28
0006b8 96d0      	ADIW R26,48
0006b9 0fae      	ADD  R26,R30
0006ba 1fbf      	ADC  R27,R31
0006bb 9508      	RET
                 
                 ;OPTIMIZER ADDED SUBROUTINE, CALLED 2 TIMES, CODE SIZE REDUCTION:3 WORDS
                 SUBOPT_0x3:
0006bc 93fa      	ST   -Y,R31
0006bd 93ea      	ST   -Y,R30
0006be e080      	LDI  R24,0
0006bf 940e 0664 	CALL _printf
0006c1 9622      	ADIW R28,2
0006c2 e030      	LDI  R19,LOW(0)
0006c3 e01a      	LDI  R17,LOW(10)
0006c4 9508      	RET
                 
                 ;OPTIMIZER ADDED SUBROUTINE, CALLED 2 TIMES, CODE SIZE REDUCTION:4 WORDS
                 SUBOPT_0x4:
0006c5 2fe1      	MOV  R30,R17
0006c6 e0f0      	LDI  R31,0
0006c7 9631      	ADIW R30,1
0006c8 01df      	MOVW R26,R30
0006c9 e0e2      	LDI  R30,LOW(2)
0006ca e0f0      	LDI  R31,HIGH(2)
0006cb 940e 07ca 	CALL __MODW21
0006cd 9730      	SBIW R30,0
0006ce 9508      	RET
                 
                 ;OPTIMIZER ADDED SUBROUTINE, CALLED 6 TIMES, CODE SIZE REDUCTION:12 WORDS
                 SUBOPT_0x5:
0006cf 9731      	SBIW R30,1
0006d0 01de      	MOVW R26,R28
0006d1 96d0      	ADIW R26,48
0006d2 0fae      	ADD  R26,R30
0006d3 1fbf      	ADC  R27,R31
0006d4 9508      	RET
                 
                 ;OPTIMIZER ADDED SUBROUTINE, CALLED 2 TIMES, CODE SIZE REDUCTION:6 WORDS
                 SUBOPT_0x6:
0006d5 2fe3      	MOV  R30,R19
0006d6 e0f0      	LDI  R31,0
0006d7 01de      	MOVW R26,R28
0006d8 9690      	ADIW R26,32
0006d9 0fea      	ADD  R30,R26
0006da 1ffb      	ADC  R31,R27
0006db 01bf      	MOVW R22,R30
0006dc 2fe1      	MOV  R30,R17
0006dd e0f0      	LDI  R31,0
0006de cff0      	RJMP SUBOPT_0x5
                 
                 ;OPTIMIZER ADDED SUBROUTINE, CALLED 2 TIMES, CODE SIZE REDUCTION:6 WORDS
                 SUBOPT_0x7:
0006df 2fe3      	MOV  R30,R19
0006e0 5f3f      	SUBI R19,-1
0006e1 e0f0      	LDI  R31,0
0006e2 01de      	MOVW R26,R28
0006e3 9690      	ADIW R26,32
0006e4 0fea      	ADD  R30,R26
0006e5 1ffb      	ADC  R31,R27
0006e6 01bf      	MOVW R22,R30
0006e7 8000      	LD   R0,Z
0006e8 cfcc      	RJMP SUBOPT_0x2
                 
                 ;OPTIMIZER ADDED SUBROUTINE, CALLED 3 TIMES, CODE SIZE REDUCTION:5 WORDS
                 SUBOPT_0x8:
                +
0006e9 e8ee     +LDI R30 , LOW ( 2 * _0x0 + ( 16 ) )
0006ea e0f1     +LDI R31 , HIGH ( 2 * _0x0 + ( 16 ) )
                 	__POINTW1FN _0x0,16
0006eb 93fa      	ST   -Y,R31
0006ec 93ea      	ST   -Y,R30
0006ed 2fe1      	MOV  R30,R17
0006ee e0f0      	LDI  R31,0
0006ef 9508      	RET
                 
                 ;OPTIMIZER ADDED SUBROUTINE, CALLED 3 TIMES, CODE SIZE REDUCTION:17 WORDS
                 SUBOPT_0x9:
0006f0 0fae      	ADD  R26,R30
0006f1 1fbf      	ADC  R27,R31
0006f2 91ec      	LD   R30,X
0006f3 27ff      	CLR  R31
0006f4 2766      	CLR  R22
0006f5 2777      	CLR  R23
0006f6 940e 07e0 	CALL __PUTPARD1
0006f8 e084      	LDI  R24,4
0006f9 940e 0664 	CALL _printf
0006fb 9626      	ADIW R28,6
0006fc 9508      	RET
                 
                 ;OPTIMIZER ADDED SUBROUTINE, CALLED 2 TIMES, CODE SIZE REDUCTION:6 WORDS
                 SUBOPT_0xA:
0006fd 2fe3      	MOV  R30,R19
0006fe e0f0      	LDI  R31,0
0006ff 01de      	MOVW R26,R28
000700 9650      	ADIW R26,16
000701 0fea      	ADD  R30,R26
000702 1ffb      	ADC  R31,R27
000703 01bf      	MOVW R22,R30
000704 2fe1      	MOV  R30,R17
000705 e0f0      	LDI  R31,0
000706 cfc8      	RJMP SUBOPT_0x5
                 
                 ;OPTIMIZER ADDED SUBROUTINE, CALLED 2 TIMES, CODE SIZE REDUCTION:6 WORDS
                 SUBOPT_0xB:
000707 2fe3      	MOV  R30,R19
000708 5f3f      	SUBI R19,-1
000709 e0f0      	LDI  R31,0
00070a 01de      	MOVW R26,R28
00070b 9650      	ADIW R26,16
00070c 0fea      	ADD  R30,R26
00070d 1ffb      	ADC  R31,R27
00070e 01bf      	MOVW R22,R30
00070f 8000      	LD   R0,Z
000710 cfa4      	RJMP SUBOPT_0x2
                 
                 ;OPTIMIZER ADDED SUBROUTINE, CALLED 2 TIMES, CODE SIZE REDUCTION:1 WORDS
                 SUBOPT_0xC:
000711 93fa      	ST   -Y,R31
000712 93ea      	ST   -Y,R30
000713 e080      	LDI  R24,0
000714 940e 0664 	CALL _printf
000716 9622      	ADIW R28,2
000717 9508      	RET
                 
                 ;OPTIMIZER ADDED SUBROUTINE, CALLED 3 TIMES, CODE SIZE REDUCTION:1 WORDS
                 SUBOPT_0xD:
000718 e0f0      	LDI  R31,0
000719 0fea      	ADD  R30,R26
00071a 1ffb      	ADC  R31,R27
00071b 010f      	MOVW R0,R30
00071c 9508      	RET
                 
                 ;OPTIMIZER ADDED SUBROUTINE, CALLED 6 TIMES, CODE SIZE REDUCTION:7 WORDS
                 SUBOPT_0xE:
00071d 27ee      	CLR  R30
00071e 0fa1      	ADD  R26,R17
00071f 1fbe      	ADC  R27,R30
000720 91ec      	LD   R30,X
000721 9508      	RET
                 
                 ;OPTIMIZER ADDED SUBROUTINE, CALLED 2 TIMES, CODE SIZE REDUCTION:12 WORDS
                 SUBOPT_0xF:
000722 e1e0      	LDI  R30,LOW(16)
000723 9fe0      	MUL  R30,R16
000724 01f0      	MOVW R30,R0
000725 01df      	MOVW R26,R30
000726 2fe1      	MOV  R30,R17
000727 e0f0      	LDI  R31,0
000728 0fea      	ADD  R30,R26
000729 1ffb      	ADC  R31,R27
00072a 81aa      	LDD  R26,Y+2
00072b 81bb      	LDD  R27,Y+2+1
00072c 0fea      	ADD  R30,R26
00072d 1ffb      	ADC  R31,R27
00072e 01bf      	MOVW R22,R30
00072f 01d0      	MOVW R26,R0
000730 27ee      	CLR  R30
000731 0fa1      	ADD  R26,R17
000732 1fbe      	ADC  R27,R30
000733 9508      	RET
                 
                 ;OPTIMIZER ADDED SUBROUTINE, CALLED 5 TIMES, CODE SIZE REDUCTION:13 WORDS
                 SUBOPT_0x10:
000734 1bea      	SUB  R30,R26
000735 0bfb      	SBC  R31,R27
000736 81aa      	LDD  R26,Y+2
000737 81bb      	LDD  R27,Y+2+1
000738 0fae      	ADD  R26,R30
000739 1fbf      	ADC  R27,R31
00073a 9508      	RET
                 
                 ;OPTIMIZER ADDED SUBROUTINE, CALLED 2 TIMES, CODE SIZE REDUCTION:20 WORDS
                 SUBOPT_0x11:
00073b e1e0      	LDI  R30,LOW(16)
00073c 9fe0      	MUL  R30,R16
00073d 01f0      	MOVW R30,R0
00073e 01df      	MOVW R26,R30
00073f 2fe1      	MOV  R30,R17
000740 e0f0      	LDI  R31,0
000741 0fea      	ADD  R30,R26
000742 1ffb      	ADC  R31,R27
000743 81aa      	LDD  R26,Y+2
000744 81bb      	LDD  R27,Y+2+1
000745 0fea      	ADD  R30,R26
000746 1ffb      	ADC  R31,R27
                +
000747 2f7e     +MOV R23 , R30
000748 2f8f     +MOV R24 , R31
                 	__PUTW1R 23,24
000749 8160      	LD   R22,Z
00074a 01d0      	MOVW R26,R0
00074b 27ee      	CLR  R30
00074c 0fa1      	ADD  R26,R17
00074d 1fbe      	ADC  R27,R30
00074e e1e0      	LDI  R30,LOW(16)
00074f e0f0      	LDI  R31,HIGH(16)
000750 940e 07e5 	CALL __SWAPW12
000752 cfe1      	RJMP SUBOPT_0x10
                 
                 ;OPTIMIZER ADDED SUBROUTINE, CALLED 2 TIMES, CODE SIZE REDUCTION:2 WORDS
                 SUBOPT_0x12:
000753 01df      	MOVW R26,R30
000754 2fe1      	MOV  R30,R17
000755 e0f0      	LDI  R31,0
000756 0fea      	ADD  R30,R26
000757 1ffb      	ADC  R31,R27
000758 81aa      	LDD  R26,Y+2
000759 81bb      	LDD  R27,Y+2+1
00075a 9508      	RET
                 
                 ;OPTIMIZER ADDED SUBROUTINE, CALLED 3 TIMES, CODE SIZE REDUCTION:1 WORDS
                 SUBOPT_0x13:
00075b 2fe1      	MOV  R30,R17
00075c e0f0      	LDI  R31,0
00075d 01de      	MOVW R26,R28
00075e 9611      	ADIW R26,1
00075f 9508      	RET
                 
                 ;OPTIMIZER ADDED SUBROUTINE, CALLED 3 TIMES, CODE SIZE REDUCTION:11 WORDS
                 SUBOPT_0x14:
000760 01fe      	MOVW R30,R28
000761 9631      	ADIW R30,1
000762 93fa      	ST   -Y,R31
000763 93ea      	ST   -Y,R30
000764 01fe      	MOVW R30,R28
000765 9673      	ADIW R30,19
000766 93fa      	ST   -Y,R31
000767 93ea      	ST   -Y,R30
000768 e1a0      	LDI  R26,LOW(16)
000769 9508      	RET
                 
                 ;OPTIMIZER ADDED SUBROUTINE, CALLED 2 TIMES, CODE SIZE REDUCTION:3 WORDS
                 SUBOPT_0x15:
00076a 01de      	MOVW R26,R28
00076b 9611      	ADIW R26,1
00076c 940e 0395 	CALL _SubBytes
00076e 01de      	MOVW R26,R28
00076f 9611      	ADIW R26,1
000770 940c 04b3 	JMP  _ShiftRows
                 
                 ;OPTIMIZER ADDED SUBROUTINE, CALLED 2 TIMES, CODE SIZE REDUCTION:2 WORDS
                 SUBOPT_0x16:
000772 0fea      	ADD  R30,R26
000773 1ffb      	ADC  R31,R27
000774 010f      	MOVW R0,R30
000775 a1aa      	LDD  R26,Y+34
000776 a1bb      	LDD  R27,Y+34+1
000777 cfa5      	RJMP SUBOPT_0xE
                 
                 ;OPTIMIZER ADDED SUBROUTINE, CALLED 5 TIMES, CODE SIZE REDUCTION:13 WORDS
                 SUBOPT_0x17:
000778 932a      	ST   -Y,R18
000779 85ad      	LDD  R26,Y+13
00077a 85be      	LDD  R27,Y+13+1
00077b 85ef      	LDD  R30,Y+15
00077c 89f8      	LDD  R31,Y+15+1
00077d 9509      	ICALL
00077e 9508      	RET
                 
                 ;OPTIMIZER ADDED SUBROUTINE, CALLED 5 TIMES, CODE SIZE REDUCTION:9 WORDS
                 SUBOPT_0x18:
00077f 89e8      	LDD  R30,Y+16
000780 89f9      	LDD  R31,Y+16+1
000781 9734      	SBIW R30,4
000782 8be8      	STD  Y+16,R30
000783 8bf9      	STD  Y+16+1,R31
000784 9508      	RET
                 
                 ;OPTIMIZER ADDED SUBROUTINE, CALLED 3 TIMES, CODE SIZE REDUCTION:3 WORDS
                 SUBOPT_0x19:
000785 85ad      	LDD  R26,Y+13
000786 85be      	LDD  R27,Y+13+1
000787 85ef      	LDD  R30,Y+15
000788 89f8      	LDD  R31,Y+15+1
000789 9509      	ICALL
00078a 9508      	RET
                 
                 ;OPTIMIZER ADDED SUBROUTINE, CALLED 2 TIMES, CODE SIZE REDUCTION:4 WORDS
                 SUBOPT_0x1A:
00078b 89a8      	LDD  R26,Y+16
00078c 89b9      	LDD  R27,Y+16+1
00078d 9614      	ADIW R26,4
00078e 940e 07d8 	CALL __GETW1P
000790 83ee      	STD  Y+6,R30
000791 83ff      	STD  Y+6+1,R31
000792 81ae      	LDD  R26,Y+6
000793 81bf      	LDD  R27,Y+6+1
000794 9508      	RET
                 
                 ;OPTIMIZER ADDED SUBROUTINE, CALLED 2 TIMES, CODE SIZE REDUCTION:2 WORDS
                 SUBOPT_0x1B:
000795 89a8      	LDD  R26,Y+16
000796 89b9      	LDD  R27,Y+16+1
000797 9614      	ADIW R26,4
000798 940e 07d8 	CALL __GETW1P
00079a 87ea      	STD  Y+10,R30
00079b 87fb      	STD  Y+10+1,R31
00079c 9508      	RET
                 
                 
                 	.CSEG
                 _delay_ms:
00079d 9610      	adiw r26,0
00079e f039      	breq __delay_ms1
                 __delay_ms0:
                +
00079f ed80     +LDI R24 , LOW ( 0x7D0 )
0007a0 e097     +LDI R25 , HIGH ( 0x7D0 )
                +__DELAY_USW_LOOP :
0007a1 9701     +SBIW R24 , 1
0007a2 f7f1     +BRNE __DELAY_USW_LOOP
                 	__DELAY_USW 0x7D0
0007a3 95a8      	wdr
0007a4 9711      	sbiw r26,1
0007a5 f7c9      	brne __delay_ms0
                 __delay_ms1:
0007a6 9508      	ret
                 
                 __ADDW2R15:
0007a7 2400      	CLR  R0
0007a8 0daf      	ADD  R26,R15
0007a9 1db0      	ADC  R27,R0
0007aa 9508      	RET
                 
                 __ANEGW1:
0007ab 95f1      	NEG  R31
0007ac 95e1      	NEG  R30
0007ad 40f0      	SBCI R31,0
0007ae 9508      	RET
                 
                 __ASRB12:
0007af 23ee      	TST  R30
0007b0 2e0e      	MOV  R0,R30
0007b1 2fea      	MOV  R30,R26
0007b2 f019      	BREQ __ASRB12R
                 __ASRB12L:
0007b3 95e5      	ASR  R30
0007b4 940a      	DEC  R0
0007b5 f7e9      	BRNE __ASRB12L
                 __ASRB12R:
0007b6 9508      	RET
                 
                 __DIVW21U:
0007b7 2400      	CLR  R0
0007b8 2411      	CLR  R1
0007b9 e190      	LDI  R25,16
                 __DIVW21U1:
0007ba 0faa      	LSL  R26
0007bb 1fbb      	ROL  R27
0007bc 1c00      	ROL  R0
0007bd 1c11      	ROL  R1
0007be 1a0e      	SUB  R0,R30
0007bf 0a1f      	SBC  R1,R31
0007c0 f418      	BRCC __DIVW21U2
0007c1 0e0e      	ADD  R0,R30
0007c2 1e1f      	ADC  R1,R31
0007c3 c001      	RJMP __DIVW21U3
                 __DIVW21U2:
0007c4 60a1      	SBR  R26,1
                 __DIVW21U3:
0007c5 959a      	DEC  R25
0007c6 f799      	BRNE __DIVW21U1
0007c7 01fd      	MOVW R30,R26
0007c8 01d0      	MOVW R26,R0
0007c9 9508      	RET
                 
                 __MODW21:
0007ca 94e8      	CLT
0007cb ffb7      	SBRS R27,7
0007cc c004      	RJMP __MODW211
0007cd 95a0      	COM  R26
0007ce 95b0      	COM  R27
0007cf 9611      	ADIW R26,1
0007d0 9468      	SET
                 __MODW211:
0007d1 fdf7      	SBRC R31,7
0007d2 dfd8      	RCALL __ANEGW1
0007d3 dfe3      	RCALL __DIVW21U
0007d4 01fd      	MOVW R30,R26
0007d5 f40e      	BRTC __MODW212
0007d6 dfd4      	RCALL __ANEGW1
                 __MODW212:
0007d7 9508      	RET
                 
                 __GETW1P:
0007d8 91ed      	LD   R30,X+
0007d9 91fc      	LD   R31,X
0007da 9711      	SBIW R26,1
0007db 9508      	RET
                 
                 __GETW1PF:
0007dc 9005      	LPM  R0,Z+
0007dd 91f4      	LPM  R31,Z
0007de 2de0      	MOV  R30,R0
0007df 9508      	RET
                 
                 __PUTPARD1:
0007e0 937a      	ST   -Y,R23
0007e1 936a      	ST   -Y,R22
0007e2 93fa      	ST   -Y,R31
0007e3 93ea      	ST   -Y,R30
0007e4 9508      	RET
                 
                 __SWAPW12:
0007e5 2e1b      	MOV  R1,R27
0007e6 2fbf      	MOV  R27,R31
0007e7 2df1      	MOV  R31,R1
                 
                 __SWAPB12:
0007e8 2e1a      	MOV  R1,R26
0007e9 2fae      	MOV  R26,R30
0007ea 2de1      	MOV  R30,R1
0007eb 9508      	RET
                 
                 __SAVELOCR6:
0007ec 935a      	ST   -Y,R21
                 __SAVELOCR5:
0007ed 934a      	ST   -Y,R20
                 __SAVELOCR4:
0007ee 933a      	ST   -Y,R19
                 __SAVELOCR3:
0007ef 932a      	ST   -Y,R18
                 __SAVELOCR2:
0007f0 931a      	ST   -Y,R17
0007f1 930a      	ST   -Y,R16
0007f2 9508      	RET
                 
                 __LOADLOCR6:
0007f3 815d      	LDD  R21,Y+5
                 __LOADLOCR5:
0007f4 814c      	LDD  R20,Y+4
                 __LOADLOCR4:
0007f5 813b      	LDD  R19,Y+3
                 __LOADLOCR3:
0007f6 812a      	LDD  R18,Y+2
                 __LOADLOCR2:
0007f7 8119      	LDD  R17,Y+1
0007f8 8108      	LD   R16,Y
0007f9 9508      	RET
                 
                 ;END OF CODE MARKER
                 __END_OF_CODE:


RESOURCE USE INFORMATION
------------------------

Notice:
The register and instruction counts are symbol table hit counts,
and hence implicitly used resources are not counted, eg, the
'lpm' instruction without operands implicitly uses r0 and z,
none of which are counted.

x,y,z are separate entities in the symbol table and are
counted separately from r26..r31 here.

.dseg memory usage only counts static data declared with .byte

ATmega168A register use summary:
r0 :  52 r1 :   9 r2 :   0 r3 :   4 r4 :   4 r5 :   0 r6 :  10 r7 :   0 
r8 :   0 r9 :   0 r10:   0 r11:   0 r12:   0 r13:   0 r14:   0 r15:   4 
r16:  52 r17: 122 r18:  27 r19:  17 r20:   9 r21:  17 r22:  24 r23:   6 
r24:  18 r25:   5 r26: 425 r27: 124 r28:  58 r29:   1 r30: 488 r31: 143 
x  :  92 y  : 374 z  :  25 
Registers used: 25 out of 35 (71.4%)

ATmega168A instruction use summary:
.lds  :   0 .lds.l:   0 .sts  :   0 .sts.l:   0 adc   :  34 add   :  37 
adiw  :  83 and   :   0 andi  :   7 asr   :   1 bclr  :   0 bld   :   0 
brbc  :   0 brbs  :   0 brcc  :   1 brcs  :   0 break :   0 breq  :  23 
brge  :   0 brhc  :   0 brhs  :   0 brid  :   0 brie  :   0 brlo  :  11 
brlt  :   0 brmi  :   0 brne  :  41 brpl  :   1 brsh  :  22 brtc  :   1 
brts  :   0 brvc  :   0 brvs  :   0 bset  :   0 bst   :   0 call  : 100 
cbi   :   0 cbr   :   0 clc   :   0 clh   :   0 cli   :   2 cln   :   0 
clr   :  21 cls   :   0 clt   :   1 clv   :   0 clz   :   0 com   :   2 
cp    :   8 cpc   :   4 cpi   :  67 cpse  :   0 dec   :   4 des   :   0 
eor   :  69 fmul  :   0 fmuls :   0 fmulsu:   0 icall :   2 ijmp  :   0 
in    :   1 inc   :   3 jmp   :  28 ld    :  54 ldd   : 260 ldi   : 165 
lds   :   3 lpm   :  18 lsl   :   2 lsr   :   0 mov   :  65 movw  :  81 
mul   :   5 muls  :   4 mulsu :   0 neg   :   2 nop   :   0 or    :   0 
ori   :   6 out   :  13 pop   :   3 push  :   3 rcall :  12 ret   :  44 
reti  :   1 rjmp  :  98 rol   :   3 ror   :   0 sbc   :   3 sbci  :   9 
sbi   :   1 sbic  :   0 sbis  :   0 sbiw  :  24 sbr   :   1 sbrc  :   3 
sbrs  :  11 sec   :   0 seh   :   0 sei   :   2 sen   :   0 ser   :   0 
ses   :   0 set   :   1 sev   :   0 sez   :   0 sleep :   0 spm   :   0 
st    : 135 std   :  28 sts   :   8 sub   :   3 subi  :  49 swap  :   0 
tst   :   8 wdr   :   1 
Instructions used: 62 out of 116 (53.4%)

ATmega168A memory use summary [bytes]:
Segment   Begin    End      Code   Data   Used    Size   Use%
---------------------------------------------------------------
[.cseg] 0x000000 0x000ff4   3676    408   4084   16384  24.9%
[.dseg] 0x000100 0x000335      0     53     53    1024   5.2%
[.eseg] 0x000000 0x000000      0      0      0     512   0.0%

Assembly complete, 0 errors, 4 warnings
